(lp1
S'http://jobview.monster.ca/Programmer-Analyst-COBOL-Job-Edmonton-AB-116755474.aspx'
p2
aS'http://jobview.monster.ca/Programmer-Analyst-Java-J2EE-Job-Edmonton-AB-116755501.aspx'
p3
aS'http://jobview.monster.ca/Cube-Van-Delivery-Driver-Warehouse-Associate-Job-Oshawa-ON-116093088.aspx'
p4
aS'http://jobview.monster.ca/Restaurant-Team-Member-Production-Job-Sudbury-ON-115793770.aspx'
p5
aS'http://jobview.monster.ca/Financial-Analyst-II-Job-Oakville-ON-116380462.aspx'
p6
aS'http://jobview.monster.ca/Senior-Program-Manager-Job-Burlington-ON-116229489.aspx'
p7
aS'http://jobview.monster.ca/Talent-Development-Leader-Job-Winnipeg-MB-115765532.aspx'
p8
aS'http://jobview.monster.ca/INSPECTOR-A-D-II-Job-Edmonton-AB-115793185.aspx'
p9
aS'http://jobview.monster.ca/Assistant-H-F-de-Direction-Job-Montreal-QC-115742571.aspx'
p10
aS'http://jobview.monster.ca/Junior-Industrial-Engineer-Production-Engineer-Fantastic-First-Job-Job-Mississauga-ON-116350475.aspx'
p11
aS'http://jobview.monster.ca/MANAGERS-NEEDED-IN-NE-CALGARY-Turn-your-love-of-pets-into-a-career-you-love-Job-Calgary-AB-116350076.aspx'
p12
aS'http://jobview.monster.ca/Digital-Imaging-Specialist-Job-Hamilton-Burlington-ON-116754666.aspx'
p13
aS'http://jobview.monster.ca/Computer-Specialist-Job-Hamilton-Burlington-ON-116754663.aspx'
p14
aS'http://jobview.monster.ca/Loss-Prevention-Specialist-Job-Hamilton-Burlington-ON-116754668.aspx'
p15
aS'http://jobview.monster.ca/Gaming-Media-Specialist-Job-Hamilton-Burlington-ON-116754681.aspx'
p16
aS'http://jobview.monster.ca/Home-Theatre-Specialist-Job-Hamilton-Burlington-ON-116754682.aspx'
p17
aS'http://jobview.monster.ca/Restaurant-Manager-Job-CA-114981036.aspx'
p18
aS'http://jobview.monster.ca/Technical-Sales-Representative-Job-Mississauga-ON-CA-115788308.aspx'
p19
aS'http://jobview.monster.ca/Restaurant-Team-Member-Production-Job-700-University-Ave.-ON-CA-116336423.aspx'
p20
aS'http://jobview.monster.ca/EN-07-Resource-Manager-1-Job-Toronto-GTA-ON-CA-115728365.aspx'
p21
aS'http://jobview.monster.ca/Digital-Imaging-Specialist-Job-Hamilton-Burlington-ON-116754684.aspx'
p22
aS'http://jobview.monster.ca/Inventory-Specialist-Job-Hamilton-Burlington-ON-116754687.aspx'
p23
aS'http://jobview.monster.ca/Gaming-Media-Specialist-Job-Hamilton-Burlington-ON-116754692.aspx'
p24
aS'http://jobview.monster.ca/Home-Theatre-Specialist-Job-Hamilton-Burlington-ON-116754693.aspx'
p25
aS'http://jobview.monster.ca/Digital-Imaging-Specialist-Job-Hamilton-Burlington-ON-116754695.aspx'
p26
aS'http://jobview.monster.ca/Inventory-Specialist-Job-Hamilton-Burlington-ON-116754698.aspx'
p27
aS'http://jobview.monster.ca/Merchandising-Specialist-Job-Hamilton-Burlington-ON-116754699.aspx'
p28
aS'http://jobview.monster.ca/Gaming-Media-Specialist-Job-Hamilton-Burlington-ON-116754705.aspx'
p29
aS'http://jobview.monster.ca/Home-Theatre-Specialist-Job-Hamilton-Burlington-ON-116754706.aspx'
p30
aS'http://jobview.monster.ca/Digital-Audio-Specialist-Job-Hamilton-Burlington-ON-116754709.aspx'
p31
aS'http://jobview.monster.ca/Inventory-Specialist-Job-Hamilton-Burlington-ON-116754711.aspx'
p32
aS'http://jobview.monster.ca/Merchandising-Specialist-Job-Hamilton-Burlington-ON-116754712.aspx'
p33
aS'http://jobview.monster.ca/TECHNICIAN-Job-Slemon-Park-PE-116746718.aspx'
p34
aS'http://jobview.monster.ca/Telephone-Adjuster-II-Job-Toronto-116652666.aspx'
p35
aS'http://jobview.monster.ca/Underwriting-Manager-Job-Calgary-AB-116508869.aspx'
p36
aS'http://jobview.monster.ca/Automation-QA-Developer-Network-Topologies-Protocols-Job-Montreal-QC-116746014.aspx'
p37
aS'http://jobview.monster.ca/National-Auditing-Standards-Coodinator-Job-Toronto-GTA-ON-CA-116307036.aspx'
p38
aS'http://jobview.monster.ca/Restaurant-Team-Member-Job-CA-116307380.aspx'
p39
aS'http://jobview.monster.ca/Spa-Salon-Manager-Job-City-of-Toronto-ON-CA-116739788.aspx'
p40
aS'http://jobview.monster.ca/Recruiter-Job-Leduc-County-AB-CA-116733823.aspx'
p41
aS'http://jobview.monster.ca/Assistant-Store-Manager-Retail-Job-Ottawa-ON-116742209.aspx'
p42
aS'http://jobview.monster.ca/Bilingual-Administrative-Assistant-Job-Markham-L3R3L2-116753216.aspx'
p43
aS'http://jobview.monster.ca/LASER-SETUP-PROGRAMMER-Job-Concord-ON-116597566.aspx'
p44
aS'http://jobview.monster.ca/Field-Sales-Representative-Mississauga-Brampton-Scarborough-Markham-Oshawa-Whitby-Job-Toronto-ON-116366499.aspx'
p45
aS'http://jobview.monster.ca/Sales-Associate-Terrebonne-Repentigny-Saint-Jerome-Job-Terrebonne-QC-116270413.aspx'
p46
aS'http://jobview.monster.ca/Sales-Associates-Oakville-Job-Oakville-ON-116270468.aspx'
p47
aS'http://jobview.monster.ca/Sales-Associates-Mississauga-Brampton-Full-Time-Part-Time-Job-Mississauga-ON-116270525.aspx'
p48
aS'http://jobview.monster.ca/Store-Manager-Assistant-Manager-Montreal-Job-Montreal-QC-116270581.aspx'
p49
aS'http://jobview.monster.ca/Store-Managers-Assistant-Managers-Mississauga-Brampton-Job-Brampton-ON-116270670.aspx'
p50
aS'http://jobview.monster.ca/Store-Managers-Assistant-Store-Managers-for-Hamilton-Job-Stoney-Creek-ON-116270682.aspx'
p51
aS'http://jobview.monster.ca/Store-Managers-Assistant-Store-Mangers-Terrebonne-Repentigny-Saint-Jerome-Job-Terrebonne-QC-116270701.aspx'
p52
aS'http://jobview.monster.ca/RF-Engineer-Quebec-Job-Montreal-QC-116464391.aspx'
p53
aS'http://jobview.monster.ca/Sales-Associates-St-Catherines-Niagara-Job-St-Catharines-ON-116464395.aspx'
p54
aS'http://jobview.monster.ca/Store-Managers-Assistant-Managers-St-Catherines-Niagara-Job-St-Catharines-ON-116464396.aspx'
p55
aS'http://jobview.monster.ca/Customer-Care-Representatives-Job-Toronto-ON-116093522.aspx'
p56
aS'http://jobview.monster.ca/Benefits-Administrator-Job-Langley-BC-116751302.aspx'
p57
aS'http://jobview.monster.ca/Bilingual-Bids-Quotes-Coordinator-6-month-contract-Job-Ville-Mont-Royal-QC-CA-116732529.aspx'
p58
aS'http://jobview.monster.ca/Human-Resources-Manager-Job-SaskatoonSaskatoon-SK-CA-116732647.aspx'
p59
aS"http://jobview.monster.ca/Commis-aux-achats-et-%c3%a0-l'inventaire-Job-Terrebonne-CA-116733393.aspx"
p60
aS'http://jobview.monster.ca/Material-Recovery-Facility-MRF-Supervisor-Job-Southern-Alberta-AB-CA-116733538.aspx'
p61
aS'http://jobview.monster.ca/Cashiers-3576-Job-Rocky-View-AB-116473125.aspx'
p62
aS'http://jobview.monster.ca/Warehouse-Associate-Cube-Van-Delivery-Driver-G-license-required-Job-Concord-ON-116741815.aspx'
p63
aS'http://jobview.monster.ca/Supervisor-Accident-Benefits-Job-Thornhill-ON-116504550.aspx'
p64
aS'http://jobview.monster.ca/Licensed-Retail-Insurance-Agent-Kingston-Job-Kingston-ON-116501529.aspx'
p65
aS'http://jobview.monster.ca/Inside-Auto-Damage-Appraiser-Job-Thornhill-ON-116501540.aspx'
p66
aS'http://jobview.monster.ca/Total-Rewards-Specialist-Job-Thornhill-ON-116501539.aspx'
p67
aS'http://jobview.monster.ca/Telesales-Account-Manager-II-Job-Toronto-ON-116116939.aspx'
p68
aS'http://jobview.monster.ca/Sales-Manager-mhf-Job-Calgary-AB-116741721.aspx'
p69
aS'http://jobview.monster.ca/Sales-Associate-Major-Home-Fashions-Job-Calgary-AB-116599089.aspx'
p70
aS'http://jobview.monster.ca/Senior-Leadership-Consultant-Delivery-Job-Calgary-AB-116584098.aspx'
p71
aS'http://jobview.monster.ca/Director-of-Operations-Job-Toronto-ON-116750961.aspx'
p72
aS'http://jobview.monster.ca/Open-Interviews-for-Hourly-Team-Members-Job-Red-Deer-AB-116298050.aspx'
p73
aS'http://jobview.monster.ca/Retail-Manager-Job-Ayr-ON-116360295.aspx'
p74
aS'http://jobview.monster.ca/Retail-Manager-Job-Medicine-Hat-AB-116462618.aspx'
p75
aS'http://jobview.monster.ca/Restaurant-Manager-Job-Medicine-Hat-AB-116462620.aspx'
p76
aS'http://jobview.monster.ca/Retail-Manager-Job-Dawson-Creek-BC-116462621.aspx'
p77
aS'http://jobview.monster.ca/Commis-%c3%a0-l%e2%80%99exp%c3%a9dition-Job-Terrebonne-CA-116731548.aspx'
p78
aS'http://jobview.monster.ca/Bilingual-Gas-Station-Manager-Gatineau-Job-CA-116606562.aspx'
p79
aS'http://jobview.monster.ca/Contract-Performance-QA-Analyst-9-month-contract-must-have-JMeter-SoapUI-Job-Toronto-CA-116729608.aspx'
p80
aS'http://jobview.monster.ca/Inside-Sales-Rep-Customer-Service-Rep-Job-CA-115378967.aspx'
p81
aS'http://jobview.monster.ca/Retail-Manager-Job-Grand-Prairie-AB-116462623.aspx'
p82
aS'http://jobview.monster.ca/Restaurant-Manager-Job-Redcliff-AB-116462625.aspx'
p83
aS'http://jobview.monster.ca/Retail-Cashiers-Maintenanace-Team-Leaders-Job-Saskatoon-SK-116143039.aspx'
p84
aS'http://jobview.monster.ca/Restaurant-Management-Job-Brooks-AB-116143040.aspx'
p85
aS'http://jobview.monster.ca/Hiring-Retail-Managers-Job-Brooks-AB-116143042.aspx'
p86
aS'http://jobview.monster.ca/Hiring-Retail-General-Managers-Assistant-Managers-Job-Red-Deer-AB-116143048.aspx'
p87
aS'http://jobview.monster.ca/Hiring-Retail-Managers-Job-Red-Deer-AB-116143047.aspx'
p88
aS'http://jobview.monster.ca/Hiring-Retail-Managers-Job-Rycroft-AB-116143050.aspx'
p89
aS'http://jobview.monster.ca/Hiring-Retail-Managers-Job-Winnipeg-MB-116143056.aspx'
p90
aS'http://jobview.monster.ca/Hiring-Retail-Managers-Job-Etobicoke-ON-116143057.aspx'
p91
aS'http://jobview.monster.ca/Hiring-Retail-Managers-Job-Kapuskasing-ON-116143058.aspx'
p92
aS'http://jobview.monster.ca/Retial-Manager-Job-Napierville-QC-116143063.aspx'
p93
aS'http://jobview.monster.ca/Retail-Manager-Job-Sainte-Helene-de-B-QC-116143064.aspx'
p94
aS'http://jobview.monster.ca/Hiring-Retail-Managers-Job-Moose-Jaw-SK-116143065.aspx'
p95
aS"http://jobview.monster.ca/Counter-Manager-LINE-Job-Ville-d'Anjou-QC-116749951.aspx"
p96
aS'http://jobview.monster.ca/Electronic-Assemblers-Job-Waterloo-ON-116749977.aspx'
p97
aS'http://jobview.monster.ca/Inside-Sales-Representative-Job-City-of-Toronto-ON-CA-116726361.aspx'
p98
aS'http://jobview.monster.ca/Financial-Consultant-Job-Brockville-ON-CA-105355711.aspx'
p99
aS'http://jobview.monster.ca/Financial-Consultant-Job-Vernon-BC-CA-105357715.aspx'
p100
aS'http://jobview.monster.ca/Marketing-Communications-Web-Site-Designer-Job-Sainte-Anne-De-Bellevue-West-Island-QC-CA-111201633.aspx'
p101
aS'http://jobview.monster.ca/Senior-Financial-Planner-Longueuil-Job-Saskatoon-SK-116749439.aspx'
p102
aS'http://jobview.monster.ca/Law-Clerk-Job-Toronto-ON-116740437.aspx'
p103
aS'http://jobview.monster.ca/Legal-Assistant-Job-Toronto-ON-116740439.aspx'
p104
aS'http://jobview.monster.ca/Parts-Counter-Person-Job-Humboldt-SK-116740337.aspx'
p105
aS'http://jobview.monster.ca/Outside-Technical-Sales-Calgary-Job-Calgary-AB-116716705.aspx'
p106
aS'http://jobview.monster.ca/Seasonal-Specialists-Job-Windsor-ON-116740321.aspx'
p107
aS'http://jobview.monster.ca/Middleware-Engineer-Lead-Job-Vancouver-BC-116740325.aspx'
p108
aS'http://jobview.monster.ca/Sr-Engineer-Database-Job-Vancouver-BC-116740326.aspx'
p109
aS'http://jobview.monster.ca/Senior-Data-Warehouse-Architect-Job-Toronto-ON-116748581.aspx'
p110
aS'http://jobview.monster.ca/Controller-Job-Edmonton-AB-116623890.aspx'
p111
aS'http://jobview.monster.ca/Accounting-Clerk-Job-Toronto-ON-116582195.aspx'
p112
aS'http://jobview.monster.ca/Manager-of-Manufacturing-Accounting-Job-Cambridge-ON-116748239.aspx'
p113
aS'http://jobview.monster.ca/Corporate-Accountant-Job-Toronto-ON-116582265.aspx'
p114
aS'http://jobview.monster.ca/Billing-Specialist-Job-Waterloo-ON-116748233.aspx'
p115
aS'http://jobview.monster.ca/Accountant-Job-Calgary-AB-116748112.aspx'
p116
aS'http://jobview.monster.ca/Lead-Blow-Moulding-Technician-Job-Edmonton-AB-116748088.aspx'
p117
aS'http://jobview.monster.ca/TM1-SME-Job-Toronto-GTA-ON-CA-116724247.aspx'
p118
aS'http://jobview.monster.ca/NEW-HOME-SALES-CONSULTANT-Job-Guelph-Kitchener-London-ON-CA-116724590.aspx'
p119
aS'http://jobview.monster.ca/District-Manager-Job-Hamilton-ON-CA-116725112.aspx'
p120
aS'http://jobview.monster.ca/Regional-Director-Memory-Care-Ontario-Job-Toronto-GTA-ON-CA-116725869.aspx'
p121
aS'http://jobview.monster.ca/Joint-Venture-Accountant-Job-Calgary-AB-116748114.aspx'
p122
aS'http://jobview.monster.ca/Payroll-Administrator-Job-Calgary-AB-116748116.aspx'
p123
aS'http://jobview.monster.ca/Public-Practice-Accountant-Great-Work-Life-Balance-Job-Edmonton-AB-116748140.aspx'
p124
aS'http://jobview.monster.ca/Project-Accountant-Job-Toronto-ON-116748147.aspx'
p125
aS'http://jobview.monster.ca/General-Accountant-Job-Oakville-ON-116748189.aspx'
p126
aS'http://jobview.monster.ca/Bilingual-Customer-Service-Job-Markham-ON-116739945.aspx'
p127
aS'http://jobview.monster.ca/Senior-Actuary-Senior-Associate-Retirement-Strategies-Winnipeg-Job-ID-40851-Job-Winnipeg-MB-116420712.aspx'
p128
aS'http://jobview.monster.ca/Regional-Sales-Executive-3-5-Preset-Prequalified-Appointments-Every-Day-Job-Winnipeg-MB-114960269.aspx'
p129
aS'http://jobview.monster.ca/Apply-Today-CUSTOMER-SERVICE-REPRESENTATIVE-Job-Calgary-AB-116330992.aspx'
p130
aS'http://jobview.monster.ca/Controller-Job-Mississauga-ON-115788070.aspx'
p131
aS'http://jobview.monster.ca/Manager-Project-Accounting-Job-Edmonton-AB-115788140.aspx'
p132
aS'http://jobview.monster.ca/Senior-Accountant-Job-Calgary-AB-116334857.aspx'
p133
aS'http://jobview.monster.ca/Insurance-Defence-Legal-Assistant-Job-Toronto-ON-116334888.aspx'
p134
aS'http://jobview.monster.ca/Senior-Financial-Analyst-Job-Calgary-AB-116334963.aspx'
p135
aS'http://jobview.monster.ca/Senior-Accountant-Job-Toronto-ON-116334965.aspx'
p136
aS'http://jobview.monster.ca/Payroll-Benefits-Administrator-Job-Toronto-ON-116334969.aspx'
p137
aS'http://jobview.monster.ca/Application-Architect-level-3-Job-Ottawa-Region-ON-CA-116722525.aspx'
p138
aS'http://jobview.monster.ca/Shutdown-Mechanical-Construction-Coordinator-Job-Fort-McMurray-AB-CA-116723011.aspx'
p139
aS'http://jobview.monster.ca/Desktop-Support-Specialist-Job-Toronto-GTA-ON-CA-116719960.aspx'
p140
aS'http://jobview.monster.ca/Sales-Representative-Consumer-Brands-Job-Toronto-GTA-ON-CA-116721737.aspx'
p141
aS'http://jobview.monster.ca/Intermediate-Accountant-Job-Winnipeg-MB-116334973.aspx'
p142
aS'http://jobview.monster.ca/Controller-Job-Winnipeg-MB-116334977.aspx'
p143
aS'http://jobview.monster.ca/Controller-Job-Winnipeg-MB-116334974.aspx'
p144
aS'http://jobview.monster.ca/Accounting-Clerk-Job-Edmonton-AB-116334981.aspx'
p145
aS'http://jobview.monster.ca/Financial-Planning-Analysis-Manager-Newly-Created-Role-Job-Toronto-ON-116334982.aspx'
p146
aS'http://jobview.monster.ca/Accounts-Receivable-Clerk-Job-Edmonton-AB-116334980.aspx'
p147
aS'http://jobview.monster.ca/Database-Administrator-Job-Ottawa-ON-116334986.aspx'
p148
aS'http://jobview.monster.ca/Restaurant-Team-Member-Job-Dresden-ON-116335402.aspx'
p149
aS'http://jobview.monster.ca/Financial-Analyst-Job-Edmonton-AB-116336776.aspx'
p150
aS'http://jobview.monster.ca/PHP-Programmer-Job-Ottawa-ON-115781720.aspx'
p151
aS'http://jobview.monster.ca/Marketing-Manager-Job-Edmonton-AB-114576009.aspx'
p152
aS'http://jobview.monster.ca/Web-Developer-Job-Toronto-ON-115781914.aspx'
p153
aS'http://jobview.monster.ca/Directional-Missile-Bore-Operator-UNC1793-Job-Mississuga-ON-115782415.aspx'
p154
aS'http://jobview.monster.ca/Restaurant-Team-Member-Job-London-ON-114981894.aspx'
p155
aS'http://jobview.monster.ca/Regional-Sales-Executive-3-5-Preset-Prequalified-Appointments-Every-Day-Job-Windsor-ON-115749350.aspx'
p156
aS'http://jobview.monster.ca/Regional-Sales-Executive-3-5-Preset-Prequalified-Appointments-Every-Day-Job-Nanaimo-BC-115166112.aspx'
p157
aS'http://jobview.monster.ca/Operations-Specialist-Landfill-12-month-contract-Job-South-Western-Ontario-ON-CA-116722242.aspx'
p158
aS'http://jobview.monster.ca/SENIOR-TEAM-LEAD-Job-BRADFORD-ON-CA-116717876.aspx'
p159
aS'http://jobview.monster.ca/Assistant-G%c3%a9rant-Job-Donnacona-QC-CA-113720569.aspx'
p160
aS'http://jobview.monster.ca/Technical-Support-Engineer-Job-Niagara-Regional-Municipality-ON-CA-116718037.aspx'
p161
aS'http://jobview.monster.ca/Regional-Sales-Executive-3-5-Preset-Prequalified-Appointments-Every-Day-Job-Dollard-Des-Ormeaux-QC-115588550.aspx'
p162
aS'http://jobview.monster.ca/Regional-Sales-Executive-3-5-Preset-Prequalified-Appointments-Every-Day-Job-Oshawa-ON-115588754.aspx'
p163
aS'http://jobview.monster.ca/Management-Trainee-Retail-Services-Job-Ottawa-ON-114816459.aspx'
p164
aS'http://jobview.monster.ca/Restaurant-Team-Member-Job-Wallaceburg-ON-114981139.aspx'
p165
aS'http://jobview.monster.ca/Restaurant-Team-Member-Job-Chatham-ON-114981143.aspx'
p166
aS'http://jobview.monster.ca/Document-Control-Needed-for-Busy-Office-Job-Edmonton-AB-116747278.aspx'
p167
aS'http://jobview.monster.ca/Trilingual-Customer-Service-Rep-Job-Markham-ON-116739807.aspx'
p168
aS'http://jobview.monster.ca/Administrative-Assistant-Job-Burnaby-BC-116747152.aspx'
p169
aS'http://jobview.monster.ca/Cost-Accountant-Job-Markham-ON-116747179.aspx'
p170
aS'http://jobview.monster.ca/Payroll-Administrator-Job-Guelph-ON-116747178.aspx'
p171
aS'http://jobview.monster.ca/Accounts-Payable-Clerk-Job-Ottawa-ON-116747183.aspx'
p172
aS'http://jobview.monster.ca/Accounts-Payable-Clerk-Job-Ottawa-ON-116747184.aspx'
p173
aS'http://jobview.monster.ca/Accounts-Receivable-Clerk-Job-Markham-ON-116747193.aspx'
p174
aS'http://jobview.monster.ca/Customer-Service-Specialist-Job-Toronto-ON-116747208.aspx'
p175
aS'http://jobview.monster.ca/Switchboard-Operator-Job-Calgary-AB-116747229.aspx'
p176
aS'http://jobview.monster.ca/Corporate-Receptionist-Job-Calgary-AB-116747232.aspx'
p177
aS'http://jobview.monster.ca/Assistant-g%c3%a9rant-Job-Cabano-QC-CA-106955202.aspx'
p178
aS'http://jobview.monster.ca/Millwright-Job-Bowmanville-ON-CA-116718346.aspx'
p179
aS'http://jobview.monster.ca/Proposal-Writer-Job-Ottawa-Gatineau-ON-CA-116718350.aspx'
p180
aS'http://jobview.monster.ca/Salesperson-%e2%80%93-Dead-Sea-Cosmetics-Health-Products-Job-CA-116045116.aspx'
p181
aS'http://jobview.monster.ca/Corporate-Receptionist-Job-Calgary-AB-116747232.aspx'
p182
aS'http://jobview.monster.ca/Reception-Construction-Company-Acheson-Location-Job-Edmonton-AB-116747268.aspx'
p183
aS'http://jobview.monster.ca/Mobile-Web-Developer-Job-Ottawa-ON-116747094.aspx'
p184
aS'http://jobview.monster.ca/Estimator-Job-Surrey-BC-116747146.aspx'
p185
aS'http://jobview.monster.ca/Purchaser-Job-Surrey-BC-116747147.aspx'
p186
aS'http://jobview.monster.ca/Senior-Financial-Analyst-Job-North-York-ON-116489092.aspx'
p187
aS'http://jobview.monster.ca/Plant-Manager-Job-Hamilton-ON-116746998.aspx'
p188
aS'http://jobview.monster.ca/Restaurant-Team-Member-Job-Chatham-ON-114981134.aspx'
p189
aS'http://jobview.monster.ca/Restaurant-Team-Member-Job-Wallaceburg-ON-114981156.aspx'
p190
aS'http://jobview.monster.ca/Maintenance-Mechanic-Packaging-Food-Mfg-Job-North-York-ON-116739813.aspx'
p191
aS'http://jobview.monster.ca/Human-Resources-Business-Partner-Job-Fort-McMurray-AB-115729814.aspx'
p192
aS'http://jobview.monster.ca/Restaurant-Team-Member-Job-Dresden-ON-114981089.aspx'
p193
aS'http://jobview.monster.ca/Technology-Lead-Job-Toronto-ON-115781939.aspx'
p194
aS'http://jobview.monster.ca/Restaurant-Team-Member-Job-London-ON-107221513.aspx'
p195
aS'http://jobview.monster.ca/Executive-Assistant-High-Profile-Client-South-Side-Job-Edmonton-AB-115781112.aspx'
p196
aS'http://jobview.monster.ca/Net-Web-Developer-Job-Toronto-ON-115781674.aspx'
p197
aS'http://jobview.monster.ca/Regional-Sales-Representative-Western-Canada-Job-CA-116472944.aspx'
p198
aS'http://jobview.monster.ca/INSPECTORS-Job-Bradford-ON-CA-116718991.aspx'
p199
aS'http://jobview.monster.ca/TEAM-LEAD-Job-Bradford-ON-CA-116719249.aspx'
p200
aS'http://jobview.monster.ca/Sheet-Metal-Worker-Job-Chatham-Kent-ON-CA-116714764.aspx'
p201
aS'http://jobview.monster.ca/Aide-livreur-Job-Sainte-foy-QC-116332173.aspx'
p202
aS'http://jobview.monster.ca/CHAUFFEURS-LIVREURS-CLASSE-3-Job-Sainte-foy-QC-116332177.aspx'
p203
aS'http://jobview.monster.ca/Controller-Join-the-Executive-Team-Job-Leduc-AB-115787978.aspx'
p204
aS'http://jobview.monster.ca/Payroll-Administrator-Job-Vancouver-BC-115787961.aspx'
p205
aS'http://jobview.monster.ca/Senior-Financial-Analyst-to-Join-Very-Dynamic-Team-Job-Vancouver-BC-115788066.aspx'
p206
aS'http://jobview.monster.ca/Staff-Accountant-Job-Calgary-AB-115788114.aspx'
p207
aS'http://jobview.monster.ca/Financial-Analyst-Job-Calgary-AB-115788121.aspx'
p208
aS'http://jobview.monster.ca/Financial-Planning-Analysis-Manager-Job-Toronto-ON-116334960.aspx'
p209
aS'http://jobview.monster.ca/Accountant-Are-you-pursuing-a-designation-Job-Edmonton-AB-116334929.aspx'
p210
aS'http://jobview.monster.ca/Senior-Business-Analyst-Capital-Allocation-Job-Toronto-ON-116334962.aspx'
p211
aS'http://jobview.monster.ca/Accounts-Payable-Clerk-Job-Ottawa-ON-116747180.aspx'
p212
aS'http://jobview.monster.ca/Payroll-Benefits-Administrator-Job-Edmonton-AB-116334967.aspx'
p213
aS'http://jobview.monster.ca/Credit-Analyst-Job-Toronto-ON-116334968.aspx'
p214
aS'http://jobview.monster.ca/Accounts-Receivable-High-Profile-Edmonton-Employer-Job-Edmonton-AB-116334978.aspx'
p215
aS'http://jobview.monster.ca/Web-Developer-Job-Toronto-ON-116334985.aspx'
p216
aS'http://jobview.monster.ca/Telecommunications-Specialist-Job-Oakville-ON-116334987.aspx'
p217
aS"http://jobview.monster.ca/Fleet-Office-Coordinator-Job-St.-John's-NL-CA-116715363.aspx"
p218
aS'http://jobview.monster.ca/Assistant-Store-Manager-Bouclair-HOME-Job-Calgary-AB-CA-116715663.aspx'
p219
aS'http://jobview.monster.ca/Fund-raising-Sales-Associate-Job-Vancouver-area-BC-CA-111541078.aspx'
p220
aS'http://jobview.monster.ca/CA-Account-Manager-I-Collab-Account-Manager-I-Collab-Job-Toronto-GTA-ON-CA-116715814.aspx'
p221
aS'http://jobview.monster.ca/Jr-Web-PHP-Developer-Job-Newmarket-ON-116334989.aspx'
p222
aS'http://jobview.monster.ca/Executive-Assistant-Job-Toronto-ON-116330994.aspx'
p223
aS'http://jobview.monster.ca/Proposal-Writer-Job-Vancouver-BC-114966879.aspx'
p224
aS'http://jobview.monster.ca/Account-Executive-Construction-Services-Group-Winnipeg-Job-ID-41211-Job-Winnipeg-MB-116739985.aspx'
p225
aS'http://jobview.monster.ca/Government-ministry-looking-for-Administrative-Assistant-Job-Edmonton-AB-116747261.aspx'
p226
aS'http://jobview.monster.ca/Middleware-Engineer-Job-Vancouver-BC-116740324.aspx'
p227
aS'http://jobview.monster.ca/End-User-Support-Lead-Job-Vancouver-BC-116740323.aspx'
p228
aS'http://jobview.monster.ca/Payroll-Clerk-Job-Coquitlam-BC-116748218.aspx'
p229
aS'http://jobview.monster.ca/User-Interface-Architect-Job-Vancouver-BC-116740322.aspx'
p230
aS'http://jobview.monster.ca/Law-Clerk-Job-Toronto-ON-116740438.aspx'
p231
aS'http://jobview.monster.ca/IT-Associate-Program-Data-Analyst-Job-Scarborough-ON-116740633.aspx'
p232
aS'http://jobview.monster.ca/Perm-P-T-Sales-Associate-Lindt-Job-Edmonton-AB-116741729.aspx'
p233
aS'http://jobview.monster.ca/Java-Developer-Order-Management-Contract-Job-Vancouver-BC-116754689.aspx'
p234
aS'http://jobview.monster.ca/Compliance-Analyst-Intermediate-Excel-Job-Burnaby-BC-116746013.aspx'
p235
aS'http://jobview.monster.ca/Bilingual-Proofreader-Job-Toronto-ON-116746996.aspx'
p236
aS'http://jobview.monster.ca/Technical-Inside-Sales-Job-Delta-BC-116747149.aspx'
p237
aS'http://jobview.monster.ca/CA-Account-Director-Account-Director-I-Collab-services-Job-Toronto-GTA-ON-CA-116715815.aspx'
p238
aS'http://jobview.monster.ca/Senior-Sales-Associates-Keyholder-Job-Calgary-AB-CA-116715821.aspx'
p239
aS'http://jobview.monster.ca/Contract-Sr-QA-Analyst-Government-or-Transportation-1-year-contract!-Job-Toronto-CA-116716057.aspx'
p240
aS'http://jobview.monster.ca/SAP-ABAP-ANALYSTE-PROGRAMMEUR-besoins-futurs-Job-Saguenay-Lac-St.Jean-QC-CA-116712455.aspx'
p241
aS'http://jobview.monster.ca/Receptionist-Job-Richmond-Hill-ON-116747182.aspx'
p242
aS'http://jobview.monster.ca/Accounts-Specialist-specializing-in-Credit-Collection-Job-Ottawa-ON-116747188.aspx'
p243
aS'http://jobview.monster.ca/Bilingual-Credit-Collection-Clerk-Job-Ottawa-ON-116747189.aspx'
p244
aS'http://jobview.monster.ca/Administrative-Assistant-Receptionist-Job-Calgary-AB-116747230.aspx'
p245
aS'http://jobview.monster.ca/Legal-Secretary-Job-Winnipeg-MB-116747240.aspx'
p246
aS'http://jobview.monster.ca/Government-ministry-looking-for-Administrative-Assistant-Job-Edmonton-AB-116747261.aspx'
p247
aS'http://jobview.monster.ca/Receptionist-East-Side-Location-No-Transit-Available-Job-Edmonton-AB-116747241.aspx'
p248
aS'http://jobview.monster.ca/Blow-Moulding-Technician-Job-Edmonton-AB-116747782.aspx'
p249
aS'http://jobview.monster.ca/Accounts-Payable-Accounts-Receivable-Technician-Job-Calgary-AB-116748111.aspx'
p250
aS'http://jobview.monster.ca/Accounting-Clerk-Job-Calgary-AB-116748115.aspx'
p251
aS'http://jobview.monster.ca/Financial-Controller-Job-Calgary-AB-116748133.aspx'
p252
aS'http://jobview.monster.ca/Tax-Director-Manager-Corporate-Job-Mississauga-ON-116748168.aspx'
p253
aS'http://jobview.monster.ca/Payroll-Clerk-Job-Coquitlam-BC-116748218.aspx'
p254
aS'http://jobview.monster.ca/JAVA-DEVELOPER-DBA-Job-aurora-ON-116748823.aspx'
p255
aS'http://jobview.monster.ca/Bilingual-Sales-Support-Assistant-Job-Montreal-QC-116749425.aspx'
p256
aS"http://jobview.monster.ca/Visual-Presentation-Associate-Job-Ville-d'Anjou-QC-116750253.aspx"
p257
aS'http://jobview.monster.ca/Financial-Advisor-Investment-Advisor-Job-Sydney-NS-CA-87205248.aspx'
p258
aS'http://jobview.monster.ca/Experienced-Financial-Advisors-Job-Toronto-ON-CA-98968460.aspx'
p259
aS'http://jobview.monster.ca/Toolcrib-Warehouse-Tech-Job-Fort-Saskatchewan-CA-116713941.aspx'
p260
aS'http://jobview.monster.ca/Engineer-in-Training-Job-Edmonton-AB-CA-116711184.aspx'
p261
aS'http://jobview.monster.ca/Entry-Level-Sales-Job-Toronto-ON-116751067.aspx'
p262
aS'http://jobview.monster.ca/Controller-Job-Sparwood-BC-116752492.aspx'
p263
aS'http://jobview.monster.ca/Receptionist-Job-Edmonton-AB-116751477.aspx'
p264
aS'http://jobview.monster.ca/Home-Theatre-Specialist-Job-Hamilton-Burlington-ON-116754662.aspx'
p265
aS'http://jobview.monster.ca/SPECIALIST-DELI-Job-Hamilton-ON-116753976.aspx'
p266
aS'http://jobview.monster.ca/Gaming-Media-Specialist-Job-Hamilton-Burlington-ON-116754660.aspx'
p267
aS'http://jobview.monster.ca/Digital-Audio-Specialist-Job-Hamilton-Burlington-ON-116754667.aspx'
p268
aS'http://jobview.monster.ca/Merchandising-Specialist-Job-Hamilton-Burlington-ON-116754672.aspx'
p269
aS'http://jobview.monster.ca/Inventory-Specialist-Job-Hamilton-Burlington-ON-116754671.aspx'
p270
aS'http://jobview.monster.ca/Digital-Audio-Specialist-Job-Hamilton-Burlington-ON-116754685.aspx'
p271
aS'http://jobview.monster.ca/Loss-Prevention-Specialist-Job-Hamilton-Burlington-ON-116754686.aspx'
p272
aS'http://jobview.monster.ca/Merchandising-Specialist-Job-Hamilton-Burlington-ON-116754688.aspx'
p273
aS'http://jobview.monster.ca/Computer-Specialist-Job-Hamilton-Burlington-ON-116754683.aspx'
p274
aS'http://jobview.monster.ca/Computer-Specialist-Job-Hamilton-Burlington-ON-116754694.aspx'
p275
aS'http://jobview.monster.ca/Digital-Audio-Specialist-Job-Hamilton-Burlington-ON-116754696.aspx'
p276
aS'http://jobview.monster.ca/Loss-Prevention-Specialist-Job-Hamilton-Burlington-ON-116754697.aspx'
p277
aS'http://jobview.monster.ca/Production-manager-Job-Calgary-BC-CA-116500065.aspx'
p278
aS'http://jobview.monster.ca/Junior-Project-Engineer-Mechanical-Job-Hay-River-NT-CA-116064185.aspx'
p279
aS'http://jobview.monster.ca/Database-Administrator-Analyst-Job-Ottawa-Region-ON-CA-116705151.aspx'
p280
aS'http://jobview.monster.ca/Coordonnateur-Soumission-Job-Toronto-GTA-ON-CA-116703883.aspx'
p281
aS'http://jobview.monster.ca/Best-Buy-Mobile-Specialist-Job-Hamilton-Burlington-ON-116754700.aspx'
p282
aS'http://jobview.monster.ca/Loss-Prevention-Specialist-Job-Hamilton-Burlington-ON-116754710.aspx'
p283
aS'http://jobview.monster.ca/Front-Cashier-Job-Hamilton-Burlington-ON-116754702.aspx'
p284
aS'http://jobview.monster.ca/Customer-Service-Representative-Job-Hamilton-Burlington-ON-116754701.aspx'
p285
aS'http://jobview.monster.ca/Digital-Imaging-Specialist-Job-Hamilton-Burlington-ON-116754708.aspx'
p286
aS'http://jobview.monster.ca/Computer-Specialist-Job-Hamilton-Burlington-ON-116754707.aspx'
p287
aS'http://jobview.monster.ca/G%c3%a9rant-Job-Donnaconna-QC-106954675.aspx'
p288
aS'http://jobview.monster.ca/Administrative-Assistant-Job-Toronto-ON-116471066.aspx'
p289
aS'http://jobview.monster.ca/Bilingual-Customer-Service-Automotive-Job-Markham-ON-116739770.aspx'
p290
aS'http://jobview.monster.ca/Collection-Manager-Replacement-for-mat-leave-Job-Montreal-QC-116717158.aspx'
p291
aS'http://jobview.monster.ca/IP-Telephony-Application-Developer-Programmeur-de-Logiciels-de-Telecommunications-IP-Job-Montreal-QC-116556884.aspx'
p292
aS'http://jobview.monster.ca/Project-Environmental-Services-Supervisor-Job-Hanna-AB-115872816.aspx'
p293
aS'http://jobview.monster.ca/Studio-Manager-Job-Montreal-QC-116604731.aspx'
p294
aS'http://jobview.monster.ca/Senior-Solution-Director-Job-Mississauga-ON-116471946.aspx'
p295
aS'http://jobview.monster.ca/TRILINGUAL-CUSTOMER-SERVICE-CANTONESE-MANDARIN-Job-Markham-ON-116716263.aspx'
p296
aS'http://jobview.monster.ca/Bilingual-English-French-HR-Generalist-Job-Toronto-ON-116716523.aspx'
p297
aS'http://jobview.monster.ca/Change-Management-Consultant-Job-Toronto-GTA-ON-CA-116704520.aspx'
p298
aS'http://jobview.monster.ca/System-Administrator-Job-Toronto-GTA-ON-CA-116704522.aspx'
p299
aS'http://jobview.monster.ca/SQL-Database-Developer-Job-Toronto-GTA-ON-CA-116704523.aspx'
p300
aS'http://jobview.monster.ca/SharePoint-Administrator-Job-Toronto-GTA-ON-CA-116702850.aspx'
p301
aS'http://jobview.monster.ca/BI-Analyst-DW-Analyst-Job-Edmonton-AB-116314443.aspx'
p302
aS'http://jobview.monster.ca/Assistant-Store-Manager-Job-Calgary-AB-113063009.aspx'
p303
aS'http://jobview.monster.ca/FM-Engineering-Ops-Manager-Job-Vancouver-BC-116715673.aspx'
p304
aS'http://jobview.monster.ca/CCS-Call-Center-I-Job-Montreal-QC-116715813.aspx'
p305
aS'http://jobview.monster.ca/Project-Manager-II-Job-Vancouver-BC-116716103.aspx'
p306
aS'http://jobview.monster.ca/Administrateur-de-contrat-bilingue-Job-Montreal-QC-116309867.aspx'
p307
aS'http://jobview.monster.ca/Maintenance-Electrician-Job-Oshawa-ON-116715343.aspx'
p308
aS'http://jobview.monster.ca/Mechanical-Engineer-Job-Toronto-ON-116739295.aspx'
p309
aS'http://jobview.monster.ca/IT-Technician-Systems-Admin-Job-Montreal-QC-116310919.aspx'
p310
aS'http://jobview.monster.ca/Store-Manager-Job-Hamilton-ON-113694495.aspx'
p311
aS'http://jobview.monster.ca/IT-Ops-Support-Analyst-Job-Calgary-AB-116714786.aspx'
p312
aS'http://jobview.monster.ca/Overnight-Print-Room-Operator-Job-Mississauga-ON-116714898.aspx'
p313
aS'http://jobview.monster.ca/Senior-Real-Estate-Land-Development-Planner-Job-Ottawa-ON-116714971.aspx'
p314
aS'http://jobview.monster.ca/Senior-Software-Designer-Job-Ottawa-ON-116714966.aspx'
p315
aS'http://jobview.monster.ca/Assistant-Marketing-Campaign-Development-Bilingual-Job-Ottawa-ON-116714982.aspx'
p316
aS'http://jobview.monster.ca/Technical-Support-Representative-Bilingual-Job-Ottawa-ON-116714983.aspx'
p317
aS'http://jobview.monster.ca/Human-Resources-Business-Partner-Job-Toronto-GTA-ON-CA-116703121.aspx'
p318
aS'http://jobview.monster.ca/CEO-Job-Toronto-GTA-ON-CA-116703222.aspx'
p319
aS'http://jobview.monster.ca/Tech-Support-Web-Design-Job-Toronto-GTA-ON-CA-116703444.aspx'
p320
aS'http://jobview.monster.ca/Computer-Network-Technician-Job-Toronto-GTA-ON-CA-116703450.aspx'
p321
aS'http://jobview.monster.ca/Technical-Support-Representative-Bilingual-Job-Ottawa-ON-116714983.aspx'
p322
aS'http://jobview.monster.ca/Tech-y-Whizzes-needed-ASAP-North-York-Great-place-to-work-Job-North-York-ON-116712970.aspx'
p323
aS'http://jobview.monster.ca/Bookkeeper-Job-Mississauga-ON-116600424.aspx'
p324
aS'http://jobview.monster.ca/Receptionist-Administration-Job-Concord-ON-113360719.aspx'
p325
aS"http://jobview.monster.ca/Fashion's-Assistant-Manager-Job-Calgary-AB-116596434.aspx"
p326
aS'http://jobview.monster.ca/Service-Desk-Support-Analyst-Job-Calgary-AB-116735073.aspx'
p327
aS'http://jobview.monster.ca/Customer-Service-PR-Job-North-York-ON-116713947.aspx'
p328
aS'http://jobview.monster.ca/Software-License-Management-Specialist-Job-Mississauga-ON-116713950.aspx'
p329
aS'http://jobview.monster.ca/Counter-Manager-LINE-Job-Quebec-QC-116713984.aspx'
p330
aS'http://jobview.monster.ca/Fleet-Vehicle-Underwriter-Trucks-Job-Brossard-QC-116471427.aspx'
p331
aS'http://jobview.monster.ca/Strategic-Account-Manager-Job-Toronto-ON-116735053.aspx'
p332
aS'http://jobview.monster.ca/Assistant-Manager-Job-Montreal-QC-113814759.aspx'
p333
aS'http://jobview.monster.ca/Travel-Agency-Branch-Manager-Job-Montreal-QC-116062839.aspx'
p334
aS'http://jobview.monster.ca/Seasonal-Services-Support-Representative-Profile-Job-Mississauga-ON-116602941.aspx'
p335
aS'http://jobview.monster.ca/SharePoint-Functional-Administrator-Job-Calgary-AB-116579223.aspx'
p336
aS'http://jobview.monster.ca/Costing-Analyst-construction-Job-Montreal-QC-116735043.aspx'
p337
aS'http://jobview.monster.ca/Computer-Programmer-Job-Toronto-GTA-ON-CA-116703455.aspx'
p338
aS'http://jobview.monster.ca/Sr-Web-Developer-Job-Toronto-GTA-ON-CA-116703463.aspx'
p339
aS'http://jobview.monster.ca/Mainframe-Application-Testing-Technician-Job-Toronto-GTA-ON-CA-116703468.aspx'
p340
aS'http://jobview.monster.ca/Java-Developer-Job-Toronto-GTA-ON-CA-116703571.aspx'
p341
aS'http://jobview.monster.ca/Senior-Sales-Representative-Job-Abbotsford-BC-116734925.aspx'
p342
aS'http://jobview.monster.ca/Financial-Advisor-Investment-Advisor-Job-Winnipeg-MB-91004922.aspx'
p343
aS'http://jobview.monster.ca/Financial-Advisor-Investment-Advisor-Job-Hamilton-ON-91005114.aspx'
p344
aS'http://jobview.monster.ca/Financial-Advisor-Investment-Advisor-Job-Halifax-NS-91003551.aspx'
p345
aS'http://jobview.monster.ca/Bilingual-Order-Management-Representative-Job-Mississauga-ON-116712362.aspx'
p346
aS'http://jobview.monster.ca/Sales-Representative-Job-Calgary-AB-116712402.aspx'
p347
aS'http://jobview.monster.ca/Sales-Representative-Job-Etobicoke-ON-116712447.aspx'
p348
aS'http://jobview.monster.ca/Account-Development-Representative-Bilingual-French-English-Job-Toronto-ON-116711938.aspx'
p349
aS'http://jobview.monster.ca/Embedded-Developer-Job-Burnaby-BC-116648731.aspx'
p350
aS'http://jobview.monster.ca/Retail-Manager-Job-Cranbrook-BC-114218117.aspx'
p351
aS'http://jobview.monster.ca/Retail-Manager-Edmonton-Job-Edmonton-AB-113688541.aspx'
p352
aS'http://jobview.monster.ca/Retail-Manager-Job-Fort-St.-John-BC-114075924.aspx'
p353
aS'http://jobview.monster.ca/CNC-Machinist-Programmer-full-time-role-no-shift-work-Job-Markham-ON-116162364.aspx'
p354
aS'http://jobview.monster.ca/Technology-Sales-Supervisor-Campbell-River-Job-Campbell-River-BC-113191361.aspx'
p355
aS'http://jobview.monster.ca/General-Manager-Job-Cold-Lake-AB-113785414.aspx'
p356
aS'http://jobview.monster.ca/Billing-Clerk-Job-Mississauga-ON-116661032.aspx'
p357
aS'http://jobview.monster.ca/Business-Intergration-Specialist-AS-400-Java-Jrules-11-Month-Contract-Job-Toronto-GTA-ON-CA-116703651.aspx'
p358
aS'http://jobview.monster.ca/Nursing-Services-Supervisor-Job-Valemount-BC-CA-115756666.aspx'
p359
aS'http://jobview.monster.ca/Site-Coordinator-Job-Stewart-BC-CA-115756732.aspx'
p360
aS'http://jobview.monster.ca/BIL-Proposal-Writer-Job-Toronto-GTA-ON-CA-115752875.aspx'
p361
aS'http://jobview.monster.ca/Bookkeeper-Job-Wendover-ON-116708331.aspx'
p362
aS'http://jobview.monster.ca/Staff-Accountant-Job-Richmond-BC-116708239.aspx'
p363
aS'http://jobview.monster.ca/Human-Resources-Generalist-Job-Burnaby-BC-116734075.aspx'
p364
aS'http://jobview.monster.ca/Marketing-Sales-Entry-Level-Athletics-an-Asset-Job-Vancouver-BC-115520764.aspx'
p365
aS'http://jobview.monster.ca/Customer-Service-Marketing-Business-to-Business-Full-Training-Provided-Job-Vancouver-BC-115520795.aspx'
p366
aS'http://jobview.monster.ca/We-Provide-Stellar-Sales-Marketing-Experience!-In-Need-of-Professional-Marketing-Representatives-Job-Vancouver-BC-112555411.aspx'
p367
aS'http://jobview.monster.ca/Product-Manager-Engineering-Document-Management-Job-Waterloo-ON-115667845.aspx'
p368
aS'http://jobview.monster.ca/Sales-Marketing-Account-Representative-Customer-Focused-Sales-Driven-Face-to-Face-Job-Vancouver-BC-112556469.aspx'
p369
aS'http://jobview.monster.ca/Superintendent-Job-Vancouver-BC-116733947.aspx'
p370
aS'http://jobview.monster.ca/Senior-Technical-Services-Technician-OR-Supervisor-Job-Vancouver-BC-116733972.aspx'
p371
aS'http://jobview.monster.ca/Assistant-Controller-Job-Vancouver-BC-115052781.aspx'
p372
aS'http://jobview.monster.ca/Senior-Engineer-Mainline-Projects-Job-Edmonton-AB-116473190.aspx'
p373
aS'http://jobview.monster.ca/ROW-Agent-Job-Estevan-SK-116652343.aspx'
p374
aS'http://jobview.monster.ca/Senior-Engineer-Specialist-Terminals-Job-Calgary-AB-116614585.aspx'
p375
aS'http://jobview.monster.ca/Business-Intelligence-Analyst-Job-Edmonton-AB-116413666.aspx'
p376
aS'http://jobview.monster.ca/Shaw-Career-Fair-Job-Calgary-AB-116733781.aspx'
p377
aS'http://jobview.monster.ca/Engineering-Technologist-Job-Southeastern-Ontario-ON-CA-116315366.aspx'
p378
aS'http://jobview.monster.ca/System-Testing-Technician-Job-Toronto-GTA-ON-CA-116298258.aspx'
p379
aS'http://jobview.monster.ca/Web-Designer-Developer-Job-Toronto-GTA-ON-CA-116298253.aspx'
p380
aS'http://jobview.monster.ca/Web-Designer-Developer-Job-Toronto-GTA-ON-CA-116298255.aspx'
p381
aS'http://jobview.monster.ca/Senior-Advisor-Treasury-Job-Calgary-AB-116733833.aspx'
p382
aS'http://jobview.monster.ca/Sales-Representative-Job-Calgary-AB-116733838.aspx'
p383
aS'http://jobview.monster.ca/Sales-Representative-Job-Calgary-AB-116440404.aspx'
p384
aS'http://jobview.monster.ca/Real-Estate-Legal-Assistant-Job-Toronto-ON-116733684.aspx'
p385
aS'http://jobview.monster.ca/Senior-Infrastructure-Architect-Job-Vancouver-BC-116733493.aspx'
p386
aS'http://jobview.monster.ca/Project-Coordinator-Job-Vancouver-BC-116733527.aspx'
p387
aS'http://jobview.monster.ca/Systems-Integrator-Job-Montreal-QC-115763333.aspx'
p388
aS'http://jobview.monster.ca/Network-Infrastructure-Administrator-Job-Oakville-ON-116733246.aspx'
p389
aS'http://jobview.monster.ca/Intermediate-SAP-PI-Developer-Job-Calgary-AB-116733390.aspx'
p390
aS'http://jobview.monster.ca/Landscape-Architect-Job-Vancouver-BC-116733405.aspx'
p391
aS'http://jobview.monster.ca/Tester-contract-Job-North-York-ON-116732899.aspx'
p392
aS'http://jobview.monster.ca/Finance-Senior-Project-Manager-Job-Toronto-ON-116732907.aspx'
p393
aS'http://jobview.monster.ca/Registered-Nurse-Job-Willowdale-ON-116707199.aspx'
p394
aS'http://jobview.monster.ca/Coordinator-Job-Willowdale-ON-116224151.aspx'
p395
aS'http://jobview.monster.ca/Collection-Representatives-Job-Toronto-ON-112948367.aspx'
p396
aS'http://jobview.monster.ca/Investment-Associate-Job-Kanata-ON-116732793.aspx'
p397
aS'http://jobview.monster.ca/System-Testing-Technician-Job-Toronto-GTA-ON-CA-116298256.aspx'
p398
aS'http://jobview.monster.ca/Senior-Financial-Analyst-Job-Toronto-GTA-ON-CA-116298934.aspx'
p399
aS'http://jobview.monster.ca/Ultrasound-Technologist-Job-Kitimat-BC-CA-115757415.aspx'
p400
aS'http://jobview.monster.ca/Management-In-Training-Job-Weston-ON-CA-115763553.aspx'
p401
aS'http://jobview.monster.ca/Software-Dev-QA-Engineer-Cloud-API-CARD690-Job-Burnaby-BC-116732798.aspx'
p402
aS'http://jobview.monster.ca/Senior-Manager-Credit-Adjudication-Job-Toronto-GTA-ON-116732804.aspx'
p403
aS'http://jobview.monster.ca/Senior-Analyst-Contract-6-months-Job-Toronto-GTA-ON-116732805.aspx'
p404
aS'http://jobview.monster.ca/Personal-Banking-Officer-Trainee-Job-North-Bay-ON-116732809.aspx'
p405
aS'http://jobview.monster.ca/Financial-Advisor-Job-North-York-ON-116732808.aspx'
p406
aS'http://jobview.monster.ca/Financial-Advisor-Trainee-Job-Calgary-AB-116732813.aspx'
p407
aS'http://jobview.monster.ca/Senior-Compliance-Officer-Retail-Sales-Job-Toronto-GTA-ON-116732814.aspx'
p408
aS'http://jobview.monster.ca/Intermediate-Web-Developer-CARD720-Job-Burnaby-BC-116732830.aspx'
p409
aS'http://jobview.monster.ca/Sales-Marketing-Analyst-Job-Langley-BC-116732842.aspx'
p410
aS'http://jobview.monster.ca/Sales-Management-Trainee-Job-Peterborough-ON-115174002.aspx'
p411
aS'http://jobview.monster.ca/B2B-IT-Channel-Trainer-Job-Ottawa-ON-116732314.aspx'
p412
aS'http://jobview.monster.ca/Managing-Data-Architect-Job-Toronto-ON-116706922.aspx'
p413
aS'http://jobview.monster.ca/Messaging-Marketer-Blogging-Job-Mississauga-ON-116706925.aspx'
p414
aS'http://jobview.monster.ca/Business-Development-Manager-Sales-Job-Montreal-QC-116732102.aspx'
p415
aS'http://jobview.monster.ca/Inside-Sales-Representative-Software-Licensing-Job-Edmonton-AB-116732267.aspx'
p416
aS'http://jobview.monster.ca/B2B-IT-Channel-Trainer-Job-Toronto-GTA-ON-116732312.aspx'
p417
aS'http://jobview.monster.ca/Delivery-Driver-DZ-license-Job-Weston-ON-CA-115763560.aspx'
p418
aS'http://jobview.monster.ca/Assistant-Warehouse-Manager-Job-Weston-ON-CA-115763565.aspx'
p419
aS'http://jobview.monster.ca/Customer-Service-Associate-F-T-Job-Weston-ON-CA-115763605.aspx'
p420
aS'http://jobview.monster.ca/Sales-Associate-Job-Weston-ON-CA-115763664.aspx'
p421
aS'http://jobview.monster.ca/Senior-HTML5-developer-Job-Thornhill-ON-116107119.aspx'
p422
aS'http://jobview.monster.ca/UX-Designer-Job-Waterloo-ON-116395753.aspx'
p423
aS'http://jobview.monster.ca/Javascript-Developer-Job-Toronto-ON-116190735.aspx'
p424
aS'http://jobview.monster.ca/Android-Developer-San-Diego-Job-Toronto-ON-116662860.aspx'
p425
aS'http://jobview.monster.ca/Senior-Project-Manager-Job-Toronto-ON-116662866.aspx'
p426
aS'http://jobview.monster.ca/Senior-C-developer-Job-Toronto-ON-116582937.aspx'
p427
aS'http://jobview.monster.ca/Senior-C-developer-Job-Toronto-ON-116582933.aspx'
p428
aS'http://jobview.monster.ca/Software-QA-Job-Mississauga-ON-116146397.aspx'
p429
aS'http://jobview.monster.ca/Software-Development-Manager-Job-Mississauga-ON-116361919.aspx'
p430
aS'http://jobview.monster.ca/Infrastructure-Architect-Job-Toronto-ON-116107234.aspx'
p431
aS'http://jobview.monster.ca/Web-Developer-Job-Mississauga-ON-116488544.aspx'
p432
aS'http://jobview.monster.ca/Software-Developer-Job-Mississauga-ON-116424307.aspx'
p433
aS'http://jobview.monster.ca/J2EE-Developer-Job-Toronto-ON-116395758.aspx'
p434
aS'http://jobview.monster.ca/NET-Developer-Job-Toronto-ON-116190732.aspx'
p435
aS'http://jobview.monster.ca/senior-java-consultant-Job-Cambridge-ON-116662884.aspx'
p436
aS'http://jobview.monster.ca/C-Developer-Job-Toronto-ON-116662904.aspx'
p437
aS'http://jobview.monster.ca/Sales-Associate-Job-Weston-ON-CA-115763672.aspx'
p438
aS'http://jobview.monster.ca/Community-Speech-Pathologist-Job-Quesnel-BC-CA-115763758.aspx'
p439
aS'http://jobview.monster.ca/Physiotherapist-Job-Kitimat-BC-CA-115756597.aspx'
p440
aS'http://jobview.monster.ca/Web-Designer-Developer-Job-Toronto-GTA-ON-CA-115737337.aspx'
p441
aS'http://jobview.monster.ca/App-Developers-Music-Video-Job-Toronto-ON-116662896.aspx'
p442
aS'http://jobview.monster.ca/Software-Integration-Specialist-Job-Toronto-ON-116662917.aspx'
p443
aS'http://jobview.monster.ca/Tech-Support-Engineer-Job-Mississauga-ON-116541859.aspx'
p444
aS'http://jobview.monster.ca/Software-Developer-Job-Toronto-ON-116301178.aspx'
p445
aS'http://jobview.monster.ca/Inside-Sales-Specialist-Job-Mississauga-ON-116541883.aspx'
p446
aS'http://jobview.monster.ca/Branch-Manager-Job-Toronto-ON-116731952.aspx'
p447
aS'http://jobview.monster.ca/Store-Design-Project-Manager-Job-Calgary-AB-116531765.aspx'
p448
aS'http://jobview.monster.ca/Male-Fit-Model-Job-Calgary-AB-116472340.aspx'
p449
aS'http://jobview.monster.ca/Senior-System-Developer-Development-Services-Job-Montreal-QC-116706420.aspx'
p450
aS'http://jobview.monster.ca/Sales-Administration-Coordinator-Job-Calgary-AB-116565580.aspx'
p451
aS'http://jobview.monster.ca/Sales-Rep-%e2%80%93-Ottawa-Montreal-Job-Ottawa-ON-112908431.aspx'
p452
aS'http://jobview.monster.ca/Analyst-Master-Data-Job-Calgary-AB-116731597.aspx'
p453
aS'http://jobview.monster.ca/Senior-Release-QA-Engineer-FortiGuard-CARD708-Job-Burnaby-BC-116731615.aspx'
p454
aS'http://jobview.monster.ca/Project-Assistant-Job-Toronto-ON-116731651.aspx'
p455
aS'http://jobview.monster.ca/Sales-Representative-Greater-Toronto-Area-Job-Toronto-ON-113494205.aspx'
p456
aS'http://jobview.monster.ca/Sales-Representative-%e2%80%93-Vancouver-Job-Vancouver-BC-115732162.aspx'
p457
aS'http://jobview.monster.ca/Web-Developer-Designer-Job-Toronto-GTA-ON-CA-115737339.aspx'
p458
aS'http://jobview.monster.ca/Account-Manager-Job-Toronto-GTA-ON-CA-115737342.aspx'
p459
aS'http://jobview.monster.ca/Web-Designer-Developer-Job-Toronto-GTA-ON-CA-115737351.aspx'
p460
aS'http://jobview.monster.ca/A-D-SAles-Representative-Job-Toronto-GTA-ON-CA-115737863.aspx'
p461
aS'http://jobview.monster.ca/Sales-Rep-Greater-Toronto-Area-Job-Mississauga-ON-113494305.aspx'
p462
aS'http://jobview.monster.ca/Sales-Representative-Job-Edmonton-AB-112681394.aspx'
p463
aS'http://jobview.monster.ca/Team-Leader-Job-Calgary-AB-116731395.aspx'
p464
aS'http://jobview.monster.ca/Law-Clerk-Job-Toronto-ON-116731424.aspx'
p465
aS'http://jobview.monster.ca/AV-IPS-Engine-Developer-REQ1732-Job-Burnaby-BC-116731456.aspx'
p466
aS'http://jobview.monster.ca/Senior-Release-QA-Engineer-CARD658-1-year-contract-Job-Burnaby-BC-116731521.aspx'
p467
aS'http://jobview.monster.ca/Branded-Market-Manager-Northern-Ontario-Job-Willowdale-ON-116731539.aspx'
p468
aS'http://jobview.monster.ca/Senior-Property-Accountant-Job-Toronto-ON-116409662.aspx'
p469
aS'http://jobview.monster.ca/A-V-Audio-Video-Automation-Systems-Installer-Helper-Job-Vancouver-BC-116731223.aspx'
p470
aS'http://jobview.monster.ca/Jr-Web-Developer-CARD616-Job-Burnaby-BC-116731250.aspx'
p471
aS'http://jobview.monster.ca/Senior-Project-Engineer-Job-Calgary-AB-116729372.aspx'
p472
aS'http://jobview.monster.ca/B2B-Inside-Sales-Executive-Job-Toronto-ON-115730760.aspx'
p473
aS'http://jobview.monster.ca/Junior-Accountant-Job-North-York-ON-116730845.aspx'
p474
aS'http://jobview.monster.ca/C-Programming-Engineers-CARD-Job-Burnaby-BC-116730877.aspx'
p475
aS'http://jobview.monster.ca/Inside-Sales-Representative-Job-Calgary-AB-116730943.aspx'
p476
aS'http://jobview.monster.ca/Adjointe-Administrative-Poste-%c3%83-Long-terme-Job-Montreal-QC-116728378.aspx'
p477
aS'http://jobview.monster.ca/Software-Developer-Ruby-on-Rails-Job-Richmond-CA-115748589.aspx'
p478
aS'http://jobview.monster.ca/Copy-Computer-Technician-I-Counter-Intelligence-Job-Halifax-Regional-Area-NS-CA-116699591.aspx'
p479
aS'http://jobview.monster.ca/Contract-Administrator-ServiceNow-Calgary-Job-Edmonton-Calgary-Vancouver-Ottawa-Toronto-Victoria-CA-116694147.aspx'
p480
aS'http://jobview.monster.ca/IT-Support-Analyst-Job-St.-John-NL-CA-116689600.aspx'
p481
aS'http://jobview.monster.ca/Kitchen-Manager-Job-Kimberley-BC-116730379.aspx'
p482
aS'http://jobview.monster.ca/Transportation-Solution-Specialist-I-Job-Calgary-AB-116730433.aspx'
p483
aS'http://jobview.monster.ca/Manager-Technical-Support-Job-Ottawa-ON-116730838.aspx'
p484
aS'http://jobview.monster.ca/Chef-du-d%c3%83%c2%a9partement-des-comptes-%c3%83-payer-%c3%83-St-Eustache-Job-St-Eustache-QC-116315956.aspx'
p485
aS'http://jobview.monster.ca/Manager-Finance-Administration-Job-Toronto-ON-116411050.aspx'
p486
aS'http://jobview.monster.ca/Operations-Business-Intelligence-Developer-D%c3%a9veloppeur-%e2%80%93-Exploitation-Toronto-10480-Job-Mississauga-ON-116730294.aspx'
p487
aS'http://jobview.monster.ca/Senior-Enterprise-Architect-Job-Calgary-AB-116730309.aspx'
p488
aS'http://jobview.monster.ca/Service-Manager-Job-Olds-AB-116730317.aspx'
p489
aS'http://jobview.monster.ca/Senior-Business-Consultant-Job-toronto-ON-116730330.aspx'
p490
aS'http://jobview.monster.ca/Project-Manager-Job-Toronto-ON-116729698.aspx'
p491
aS'http://jobview.monster.ca/Retail-Store-Manager-Job-Edmonton-AB-116729826.aspx'
p492
aS'http://jobview.monster.ca/DBA-DB2-exp%c3%a9rience-partitioning-Job-Montreal-QC-116730099.aspx'
p493
aS'http://jobview.monster.ca/Bilingual-French-Repair-Tracking-Agent-Job-mississauga-ON-116730180.aspx'
p494
aS'http://jobview.monster.ca/Outside-Digital-Sales-Executive-Job-Prince-George-BC-114718339.aspx'
p495
aS'http://jobview.monster.ca/Inside-Digital-Sales-Executive-Job-Kelowna-BC-114718637.aspx'
p496
aS'http://jobview.monster.ca/Client-Relations-Executive-Job-Toronto-ON-114982441.aspx'
p497
aS'http://jobview.monster.ca/Contract-Intermediate-Solution-Architect-OSS-6-Month-Contract-Work-Remotely-Job-Toronto-CA-116689924.aspx'
p498
aS'http://jobview.monster.ca/Driver-Job-Northern-Ontario-ON-CA-116691278.aspx'
p499
aS'http://jobview.monster.ca/Inside-Sales-Rep-Job-Kitchener-Waterloo-ON-CA-116230238.aspx'
p500
aS'http://jobview.monster.ca/Contract-Business-Analyst-Montreal-Job-Ottawa-CA-116687767.aspx'
p501
aS'http://jobview.monster.ca/Managing-Director-Mount-Sinai-Services-Job-Toronto-ON-116729626.aspx'
p502
aS'http://jobview.monster.ca/Outside-Sales-Job-St.-Catharines-ON-116729621.aspx'
p503
aS'http://jobview.monster.ca/COMMIS-%c3%80-LA-FACTURATION-Job-Montr%c3%a9al-QC-116162392.aspx'
p504
aS'http://jobview.monster.ca/Warehouse-Manager-Job-Concord-ON-116473138.aspx'
p505
aS'http://jobview.monster.ca/Retail-Store-Manager-Ottawa-Job-Ottawa-ON-116473350.aspx'
p506
aS'http://jobview.monster.ca/Store-Manager-Trainee-Job-Calgary-AB-116729318.aspx'
p507
aS'http://jobview.monster.ca/Automation-Robotics-Technician-Job-Guelph-ON-116729356.aspx'
p508
aS'http://jobview.monster.ca/Software-Developer-Code-Rally-Game-Coop-4-Months-January-2013-Ottawa-Job-Ottawa-ON-116670124.aspx'
p509
aS'http://jobview.monster.ca/Data-Specialist-Job-Ottawa-ON-116585141.aspx'
p510
aS'http://jobview.monster.ca/Test-Architect-Job-Vancouver-BC-116585142.aspx'
p511
aS'http://jobview.monster.ca/Media-Planner-Job-Toronto-ON-116704600.aspx'
p512
aS'http://jobview.monster.ca/Copywriter-Job-Mississauga-ON-116704601.aspx'
p513
aS'http://jobview.monster.ca/Creative-Director-Job-Mississauga-ON-116704602.aspx'
p514
aS'http://jobview.monster.ca/Bookkeeper-Job-Markham-ON-116704605.aspx'
p515
aS'http://jobview.monster.ca/Package-Designer-Job-Mississauga-ON-116704607.aspx'
p516
aS'http://jobview.monster.ca/Senior-Tax-Advisor-Job-Calgary-AB-116729539.aspx'
p517
aS'http://jobview.monster.ca/Warehouse-Associate-17-50-hr-Calgary-Balzac-Job-Calgary-AB-CA-116687783.aspx'
p518
aS'http://jobview.monster.ca/Internet-Marketing-Consultant-Job-Toronto-GTA-ON-CA-116688073.aspx'
p519
aS'http://jobview.monster.ca/Permanent-Team-Tech-Lead-Windows-Development-Job-Toronto-CA-116688452.aspx'
p520
aS'http://jobview.monster.ca/Maintenance-Electrician-Job-Toronto-GTA-ON-CA-116688762.aspx'
p521
aS'http://jobview.monster.ca/DB2-Continuous-Engineering-Developer-Intern-12-16-Months-Markham-May-2013-Job-Markham-ON-116704610.aspx'
p522
aS'http://jobview.monster.ca/DB2-Quality-Assurance-Developer-Intern-May-2013-16-Months-Job-Markham-ON-116704611.aspx'
p523
aS'http://jobview.monster.ca/Business-Operations-Engineer-May-Student-16-Month-Internship-2013-Markham-ON-Job-Toronto-ON-116704612.aspx'
p524
aS'http://jobview.monster.ca/Business-Development-Sales-Owen-Sound-Goderich-Area-Job-Walkerton-ON-116729566.aspx'
p525
aS'http://jobview.monster.ca/6764534-Software-tester-Job-Toronto-ON-116704791.aspx'
p526
aS'http://jobview.monster.ca/Cost-Accountant-Job-Barrie-ON-116489620.aspx'
p527
aS'http://jobview.monster.ca/Customer-Reference-Coordinator-Job-Waterloo-ON-116728597.aspx'
p528
aS'http://jobview.monster.ca/Solutions-Architect-Job-Edmonton-AB-116728764.aspx'
p529
aS'http://jobview.monster.ca/Network-Engineer-Job-Ottawa-ON-116704516.aspx'
p530
aS'http://jobview.monster.ca/Senior-Software-Engineer-Job-Ottawa-ON-116704529.aspx'
p531
aS'http://jobview.monster.ca/Tax-Manager-Public-Job-Waterloo-ON-116704544.aspx'
p532
aS'http://jobview.monster.ca/Senior-Financial-Analyst-Job-Guelph-ON-116704553.aspx'
p533
aS'http://jobview.monster.ca/PLC-Engineer-Job-Hamilton-ON-116704556.aspx'
p534
aS'http://jobview.monster.ca/SharePoint-Administrator-Job-Toronto-ON-116299275.aspx'
p535
aS'http://jobview.monster.ca/Coordonnateur-trice-principal-e-Bureau-du-Directeur-et-Conservateur-en-chef-Sr-Coordinator-Job-Montr%c3%a9al-QC-116320315.aspx'
p536
aS'http://jobview.monster.ca/File-Clerk-Job-Waterloo-ON-116704227.aspx'
p537
aS'http://jobview.monster.ca/Senior-Structural-Engineer-Job-Saskatooon-SK-CA-116688783.aspx'
p538
aS'http://jobview.monster.ca/Contract-Senior-UNIX-Administrator-Job-Edmonton-Calgary-CA-116688836.aspx'
p539
aS'http://jobview.monster.ca/Manager-Change-Management-Communications-Job-Toronto-GTA-ON-CA-116689172.aspx'
p540
aS'http://jobview.monster.ca/Administrative-Support-Rep-Job-Toronto-GTA-ON-CA-116689284.aspx'
p541
aS'http://jobview.monster.ca/6762789-Software-developer-Tandem-Job-Toronto-ON-116704479.aspx'
p542
aS'http://jobview.monster.ca/Mortgage-Specialist-Medicine-Hat-AB-Job-Medicine-Hat-AB-116704477.aspx'
p543
aS'http://jobview.monster.ca/Career-Opportunity-for-Senior-Administrative-Assistant-Job-Edmonton-AB-116704175.aspx'
p544
aS'http://jobview.monster.ca/Physiotherapist-Chilliwack-General-Hospital-Job-Chilliwack-BC-116703971.aspx'
p545
aS'http://jobview.monster.ca/Registered-Nurse-Supervisor-Surgical-Clinical-Reviewer-ACS-NSQIP-Job-Chilliwack-BC-116703973.aspx'
p546
aS'http://jobview.monster.ca/Administrative-Assistant-Oil-Gas-Company-West-Edmonton-Job-Edmonton-AB-116704140.aspx'
p547
aS'http://jobview.monster.ca/Financial-Consultant-Job-Calgary-AB-116728369.aspx'
p548
aS'http://jobview.monster.ca/Financial-Consultant-Job-Calgary-AB-116728392.aspx'
p549
aS'http://jobview.monster.ca/Financial-Consultant-Job-Guelph-ON-105355204.aspx'
p550
aS'http://jobview.monster.ca/Financial-Consultant-Job-Guelph-ON-105355273.aspx'
p551
aS'http://jobview.monster.ca/Financial-Consultant-Job-Guelph-ON-105355314.aspx'
p552
aS'http://jobview.monster.ca/Junior-Sales-Representative-Job-Toronto-ON-98900896.aspx'
p553
aS'http://jobview.monster.ca/Financial-Consultant-Job-Nepean-ON-105355532.aspx'
p554
aS'http://jobview.monster.ca/Reception-Admin-Job-North-York-ON-116320787.aspx'
p555
aS'http://jobview.monster.ca/STORE-MANAGER-Job-Kanata-ON-116703936.aspx'
p556
aS'http://jobview.monster.ca/D%c3%a9veloppeur-Mainframe-Job-Montreal-QC-116728252.aspx'
p557
aS'http://jobview.monster.ca/PartsPro-Auto-Parts-Counter-Person-Job-Toronto-GTA-ON-CA-116689314.aspx'
p558
aS'http://jobview.monster.ca/Driver-Job-Toronto-GTA-ON-CA-116689318.aspx'
p559
aS'http://jobview.monster.ca/Contract-Business-Analyst-Banking-Data-Analysis-required-Job-Toronto-CA-116684945.aspx'
p560
aS'http://jobview.monster.ca/Enterprise-Architects-Job-Ottawa-Region-ON-CA-116685485.aspx'
p561
aS'http://jobview.monster.ca/CONSTRUCTION-PROJECT-QUALITY-INSPECTOR-Job-KINGSTON-ON-116703688.aspx'
p562
aS'http://jobview.monster.ca/Customer-Service-Rep-Bilingual-Job-Markham-ON-116703773.aspx'
p563
aS'http://jobview.monster.ca/Office-Manager-Job-Winnipeg-MB-116703777.aspx'
p564
aS'http://jobview.monster.ca/Assistant-Manager-Job-LANGLEY-BC-116703798.aspx'
p565
aS'http://jobview.monster.ca/Operations-Manager-Job-Prince-George-BC-116311003.aspx'
p566
aS'http://jobview.monster.ca/Application-Engineer-for-ICAM-Post-Processing-Machine-Simulation-Products-Job-Sainte-Anne-de-Bellevue-QC-116209553.aspx'
p567
aS'http://jobview.monster.ca/Conseiller-Financier-Job-Laval-QC-105405350.aspx'
p568
aS'http://jobview.monster.ca/Senior-Assistant-Manager-Job-MISSISSAUGA-ON-116662346.aspx'
p569
aS'http://jobview.monster.ca/Financial-Consultant-Job-Whitby-ON-105357122.aspx'
p570
aS'http://jobview.monster.ca/Financial-Consultant-Job-Whitby-ON-105357160.aspx'
p571
aS'http://jobview.monster.ca/Conseiller-Financier-Job-Pointe-Claire-QC-105357385.aspx'
p572
aS'http://jobview.monster.ca/Financial-Consultant-Job-Barrie-ON-105357392.aspx'
p573
aS'http://jobview.monster.ca/Assistant-Manager-Job-MISSISSAUGA-ON-116299853.aspx'
p574
aS'http://jobview.monster.ca/Conseiller-Financier-Job-Pointe-Claire-QC-105357507.aspx'
p575
aS'http://jobview.monster.ca/Financial-Consultant-Job-London-ON-105357544.aspx'
p576
aS'http://jobview.monster.ca/Order-Entry-Clerk-Job-Brampton-ON-116662948.aspx'
p577
aS'http://jobview.monster.ca/Temporary-Overnight-Renovation-Crew-Job-Guelph-ON-CA-116685499.aspx'
p578
aS'http://jobview.monster.ca/Project-Manager-Job-Edmonton-Calgary-AB-CA-116130540.aspx'
p579
aS'http://jobview.monster.ca/Complex-Technical-Solution-Owner-Job-Campbridge-ON-CA-116685820.aspx'
p580
aS'http://jobview.monster.ca/Data-Specialist-Job-Campbridge-ON-CA-116685821.aspx'
p581
aS'http://jobview.monster.ca/Production-Data-Entry-Shipping-Administrator-Job-Sainte-Anne-de-Bellevue-QC-116674139.aspx'
p582
aS'http://jobview.monster.ca/Financial-Consultant-Job-Vancouver-BC-105358135.aspx'
p583
aS'http://jobview.monster.ca/Financial-Consultant-Job-Vancouver-BC-105358044.aspx'
p584
aS'http://jobview.monster.ca/ENTERPRISE-ARCHITECT-PRE-SALES-CONSULTANT-Job-VANCOUVER-BC-116663722.aspx'
p585
aS'http://jobview.monster.ca/Technical-Consultant-technical-Services-Job-Waterloo-ON-116406097.aspx'
p586
aS'http://jobview.monster.ca/ENTERPRISE-ARCHITECT-PRE-SALES-CONSULTANT-Job-EDMONTON-AB-116663732.aspx'
p587
aS'http://jobview.monster.ca/Assistant-Manager-Job-REGINA-SK-116542073.aspx'
p588
aS'http://jobview.monster.ca/Sr-Manufacturing-Engineer-Project-Manager-Job-Windsor-ON-116727301.aspx'
p589
aS'http://jobview.monster.ca/Senior-Technical-Architect-Job-Calgary-AB-114640714.aspx'
p590
aS'http://jobview.monster.ca/Conseiller-Financier-Job-Brossard-QC-105880291.aspx'
p591
aS'http://jobview.monster.ca/Seasonal-Customer-Experience-Representative-CER-Job-MISSISSAUGA-ON-116703479.aspx'
p592
aS'http://jobview.monster.ca/Customer-Experience-Representative-CER-Tasker-on-Duty-Job-OAKVILLE-ON-116703489.aspx'
p593
aS'http://jobview.monster.ca/Seasonal-Customer-Experience-Representative-CER-Indigo-Montreal-Job-MONTREAL-QC-116703486.aspx'
p594
aS'http://jobview.monster.ca/Seasonal-Customer-Experience-Representative-CER-Job-HALIFAX-NS-116703484.aspx'
p595
aS'http://jobview.monster.ca/CONVERGIA-Repr%c3%a9sentant-Commercial-Externe-Job-Montr%c3%a9al-QC-116703495.aspx'
p596
aS'http://jobview.monster.ca/Technical-Account-Manager-Audio-Visual-Sales-Job-Winnipeg-MB-116703549.aspx'
p597
aS'http://jobview.monster.ca/Client-Technical-Specialist-BI-ETL-or-Data-Warehouse-Job-Campbridge-ON-CA-116685862.aspx'
p598
aS'http://jobview.monster.ca/Project-Manager-Job-Campbridge-ON-CA-116685930.aspx'
p599
aS'http://jobview.monster.ca/SAP-BW-Consultants-Job-Campbridge-ON-CA-116685942.aspx'
p600
aS'http://jobview.monster.ca/ITDI-ITDS-Job-Toronto-GTA-ON-CA-116682844.aspx'
p601
aS'http://jobview.monster.ca/Conseiller-Financier-Job-Brossard-QC-105880431.aspx'
p602
aS'http://jobview.monster.ca/Sales-Marketing-Manager-Job-Calgary-AB-116727882.aspx'
p603
aS'http://jobview.monster.ca/NOUVELLE-SUCCURSALE-!-Directeur-des-ventes-Job-Sherbrooke-QC-116727917.aspx'
p604
aS'http://jobview.monster.ca/Project-Controls-Analyst-Job-Calgary-AB-116703255.aspx'
p605
aS'http://jobview.monster.ca/Senior-Financial-Analyst-Job-Cambridge-ON-116703313.aspx'
p606
aS'http://jobview.monster.ca/Purchasing-Analyst-Job-Edmonton-AB-116703332.aspx'
p607
aS'http://jobview.monster.ca/Mortgage-Specialist-Victoria-BC-Job-Victoria-BC-116703352.aspx'
p608
aS'http://jobview.monster.ca/Financial-Consultant-Job-Ottawa-ON-105355269.aspx'
p609
aS'http://jobview.monster.ca/Financial-Consultant-Job-Perth-ON-105355732.aspx'
p610
aS'http://jobview.monster.ca/IT-Consultant-Bermuda-5-25-tax-Job-Toronto-ON-116610129.aspx'
p611
aS'http://jobview.monster.ca/Conseiller-Financier-Job-Westmount-QC-105356462.aspx'
p612
aS'http://jobview.monster.ca/Financial-Consultant-Job-Sherwood-Park-AB-105356631.aspx'
p613
aS'http://jobview.monster.ca/Financial-Consultant-Job-Sherwood-Park-AB-105356682.aspx'
p614
aS'http://jobview.monster.ca/Financial-Consultant-Job-Grimsby-ON-105357030.aspx'
p615
aS'http://jobview.monster.ca/Financial-Consultant-Job-Grimsby-ON-105357071.aspx'
p616
aS'http://jobview.monster.ca/Hardware-Asset-Analyst-Job-Toronto-ON-116672957.aspx'
p617
aS'http://jobview.monster.ca/Regulatory-Affairs-Quality-Assurances-Specialist-Job-DeltaE-BC-CA-116682690.aspx'
p618
aS'http://jobview.monster.ca/Relationship-Manager-Based-in-Edmonton-or-Calgary-Alberta-Job-Edmonton-or-Calgary-AB-CA-116414000.aspx'
p619
aS'http://jobview.monster.ca/Recruitment-Consultant-Hamilton-ON-Job-Hamilton-St.Catherines-ON-CA-116684215.aspx'
p620
aS'http://jobview.monster.ca/PILOTE-Job-CA-116680389.aspx'
p621
aS'http://jobview.monster.ca/Hardware-Asset-Analyst-Job-Toronto-ON-116672957.aspx'
p622
aS'http://jobview.monster.ca/Project-Manager-Retail-Construction-Job-Montr%c3%a9al-QC-116726953.aspx'
p623
aS'http://jobview.monster.ca/Warehouse-Associate-Job-Saskatoon-SK-116726956.aspx'
p624
aS'http://jobview.monster.ca/Commis-Comptable-Job-Ville-Saint-Laurent-QC-116727076.aspx'
p625
aS'http://jobview.monster.ca/Business-Technical-Analyst-2012-948-Job-Calgary-AB-116727172.aspx'
p626
aS'http://jobview.monster.ca/ACCOUNTING-CLERK-Job-Saint-Laurent-QC-116727218.aspx'
p627
aS'http://jobview.monster.ca/Field-Sales-Area-Sales-Manager-GTA-Job-Toronto-ON-113775399.aspx'
p628
aS'http://jobview.monster.ca/Technical-Support-Analyst-Job-Edmonton-AB-115754798.aspx'
p629
aS'http://jobview.monster.ca/Quantitative-Research-Analyst-Job-Toronto-ON-113026670.aspx'
p630
aS'http://jobview.monster.ca/Sales-Professional-Job-Markham-ON-116321435.aspx'
p631
aS'http://jobview.monster.ca/soudeur-euse-assembleur-euse-Job-Chateauguay-QC-116648976.aspx'
p632
aS'http://jobview.monster.ca/Principal-Client-Experience-Division-Job-North-York-ON-116726601.aspx'
p633
aS'http://jobview.monster.ca/Registered-Pharmacy-Technician-Etobicoke-1066-location-Job-Mississauga-ON-116726817.aspx'
p634
aS'http://jobview.monster.ca/Sales-Marketing-CoordinatorL5T-Job-Mississauga-ON-116726904.aspx'
p635
aS'http://jobview.monster.ca/Analyste-financier-Job-Ville-Saint-Laurent-QC-116726907.aspx'
p636
aS'http://jobview.monster.ca/Senior-Developer-Job-Toronto-ON-116702991.aspx'
p637
aS'http://jobview.monster.ca/OFFICIER-DU-G%c3%89NIE-CONSTRUCTION-Job-CA-116680541.aspx'
p638
aS'http://jobview.monster.ca/Parts-Person-Competitive-Pay-Growing-Company!-Job-Regina-SK-CA-116680708.aspx'
p639
aS'http://jobview.monster.ca/Parts-Person-Competitive-Pay-Growing-Company!-Job-Regina-SK-CA-116680682.aspx'
p640
aS'http://jobview.monster.ca/Technical-Equipment-Account-Manager-Job-AB-CA-116172298.aspx'
p641
aS'http://jobview.monster.ca/Junior-Software-Developer-Linux-C-Job-Ottawa-ON-116702999.aspx'
p642
aS'http://jobview.monster.ca/Business-Systems-Analyst-Job-Toronto-ON-116702998.aspx'
p643
aS'http://jobview.monster.ca/IT-Technician-Helpdesk-Job-Ottawa-ON-116726445.aspx'
p644
aS'http://jobview.monster.ca/Manager-Security-Services-Job-Toronto-ON-116726525.aspx'
p645
aS'http://jobview.monster.ca/Sharepoint-Systems-Analyst-Job-BRAMPTON-ON-116702864.aspx'
p646
aS'http://jobview.monster.ca/MARINE-SYSTEMS-ENGINEERING-MANAGER-Job-VANCOUVER-BC-116702871.aspx'
p647
aS'http://jobview.monster.ca/DIRECTOR-OF-ENGINEERING-MARINE-Job-VANCOUVER-BC-116702878.aspx'
p648
aS'http://jobview.monster.ca/CONSTRUCTION-ESTIMATOR-MARINE-Job-VANCOUVER-BC-116702885.aspx'
p649
aS'http://jobview.monster.ca/ELECTRICAL-ENGINEERING-SYSTEMS-MANAGER-Job-VANCOUVER-BC-116702888.aspx'
p650
aS'http://jobview.monster.ca/Ing%c3%83%c2%a9nieur-Ing%c3%83%c2%a9nieure-m%c3%83%c2%a9canique-Conception-Job-Sherbrooke-QC-116444975.aspx'
p651
aS'http://jobview.monster.ca/Coordonnateur-Coordonnatrice-en-Sant%c3%83%c2%a9-et-S%c3%83%c2%a9curit%c3%83%c2%a9-Environnement-Job-Sherbrooke-QC-116444971.aspx'
p652
aS'http://jobview.monster.ca/Adjoint-administratif-Adjointe-administrative-Job-Sherbrooke-QC-116444982.aspx'
p653
aS'http://jobview.monster.ca/Technicien-%c3%83-la-documentation-Job-Saint-Laurent-QC-116444983.aspx'
p654
aS'http://jobview.monster.ca/Technnicien-en-maintenance-m%c3%83%c2%a9canique-sp%c3%83%c2%a9cialisation-%c3%83%c2%a9puration-des-eaux-Job-Saint-Laurent-QC-116469639.aspx'
p655
aS'http://jobview.monster.ca/Field-Sales-Consultant-Eastern-Canada-Job-Toronto-ON-116445422.aspx'
p656
aS'http://jobview.monster.ca/Superviseur-Superviseure-de-la-maintenance-Job-Sherbrooke-QC-116556356.aspx'
p657
aS'http://jobview.monster.ca/Technical-Services-Technician-Supervisor-Job-CA-116680922.aspx'
p658
aS'http://jobview.monster.ca/GPS-Support-Specialist-Job-Regina-SK-CA-116681201.aspx'
p659
aS'http://jobview.monster.ca/Contract-Software-Developers-Java-Job-Ottawa-Toronto-CA-116681207.aspx'
p660
aS'http://jobview.monster.ca/GPS-Support-Specialist-Job-Regina-SK-CA-116681231.aspx'
p661
aS'http://jobview.monster.ca/Commis-de-bureau-Job-Dorval-QC-116218596.aspx'
p662
aS'http://jobview.monster.ca/Adjointe-administrative-Job-Saint-Laurent-QC-116178820.aspx'
p663
aS'http://jobview.monster.ca/Operations-Manager-CMMS-Job-Markham-ON-116726254.aspx'
p664
aS'http://jobview.monster.ca/SEO-Specialist-%e2%80%93-4477-Job-Ottawa-ON-116726294.aspx'
p665
aS'http://jobview.monster.ca/Receptionist-Job-Calgary-AB-116726315.aspx'
p666
aS'http://jobview.monster.ca/Technicien-Technicienne-en-test-de-produits-Job-Cookshire-QC-116726370.aspx'
p667
aS'http://jobview.monster.ca/adjoint-du-directeur-RH-Job-Saint-Laurent-QC-116309069.aspx'
p668
aS'http://jobview.monster.ca/Ing%c3%83%c2%a9nieur-Ing%c3%83%c2%a9nieure-en-contr%c3%83-%cc%81le-de-la-QUALIT%c3%83%e2%80%b0-chez-SCA-Job-Drummondville-QC-116444002.aspx'
p669
aS'http://jobview.monster.ca/Legal-Assistant-Litigation-Job-Toronto-ON-115915790.aspx'
p670
aS'http://jobview.monster.ca/Administrative-Assistant-Job-Toronto-ON-116726130.aspx'
p671
aS'http://jobview.monster.ca/Registered-Pharmacy-Technician-Mississauga-1011-location-Job-Mississauga-ON-116726142.aspx'
p672
aS'http://jobview.monster.ca/Legal-Assistant-Insurance-Defence-Floater-Job-Toronto-ON-106580437.aspx'
p673
aS'http://jobview.monster.ca/Customer-Care-Coordinator-Job-Toronto-ON-116725533.aspx'
p674
aS'http://jobview.monster.ca/Retail-Managers-Get-out-of-Retail-Job-Toronto-ON-116311088.aspx'
p675
aS'http://jobview.monster.ca/Entry-Level-Event-Coordinators-Job-Toronto-ON-116311312.aspx'
p676
aS'http://jobview.monster.ca/Advertising-Entry-Level-Job-Toronto-ON-116311503.aspx'
p677
aS'http://jobview.monster.ca/SP%c3%89CIALISTE-DES-SYST%c3%88MES-DE-COMMUNICATION-ET-D%e2%80%99INFORMATION-Job-CA-116681307.aspx'
p678
aS'http://jobview.monster.ca/Used-Equipment-Coordinator-Great-Pay-Growing-Company!-Job-Regina-SK-CA-116681447.aspx'
p679
aS'http://jobview.monster.ca/Used-Equipment-Coordinator-Great-Pay-Growing-Company!-Job-Regina-SK-CA-116681465.aspx'
p680
aS'http://jobview.monster.ca/Point-of-Sale-POS-Technician-Hinton-AB-Job-Hinton-CA-116681552.aspx'
p681
aS'http://jobview.monster.ca/RESTAURANT-MANAGERS-Ready-for-a-change-Job-Toronto-ON-116311469.aspx'
p682
aS'http://jobview.monster.ca/Account-Manager-Sales-Job-Hamilton-ON-116311710.aspx'
p683
aS'http://jobview.monster.ca/ENTRY-LEVEL-SALES-EVENT-COORDINATOR-Job-Kitchener-ON-116312076.aspx'
p684
aS'http://jobview.monster.ca/Registered-Pharmacy-Technician-Gloucester-YIG-4088-location-Job-Gloucester-ON-116725155.aspx'
p685
aS'http://jobview.monster.ca/Rate-Technician-II-Toronto-Job-Toronto-ON-116725213.aspx'
p686
aS'http://jobview.monster.ca/IT-Technical-Analyst-Job-Calgary-AB-116725448.aspx'
p687
aS'http://jobview.monster.ca/Technical-Sales-Engineer-Job-Windsor-ON-115551540.aspx'
p688
aS'http://jobview.monster.ca/Account-Manager-Sales-Job-Toronto-ON-116280472.aspx'
p689
aS'http://jobview.monster.ca/Manager-Business-Development-Job-Toronto-116724842.aspx'
p690
aS'http://jobview.monster.ca/Mechanical-Technical-Sales-Job-Montreal-QC-116724985.aspx'
p691
aS'http://jobview.monster.ca/DIRECTEUR-TRICE-DES-VENTES-SALES-MANAGER-Job-Montreal-QC-116444843.aspx'
p692
aS'http://jobview.monster.ca/Certified-Millwright-Job-Westbank-BC-116724359.aspx'
p693
aS'http://jobview.monster.ca/Vice-President-Marketing-Job-Burnaby-BC-116500154.aspx'
p694
aS'http://jobview.monster.ca/Quality-Assurance-Supervisor-Job-Barrie-ON-116724535.aspx'
p695
aS'http://jobview.monster.ca/Channel-Marketing-Representative-Job-Dorval-QC-116724564.aspx'
p696
aS'http://jobview.monster.ca/Office-Inventory-Clerk-for-a-Manufacturing-Industry-Job-Ottawa-ON-116724593.aspx'
p697
aS'http://jobview.monster.ca/Varennes-Technicien-en-%c3%a9lectricit%c3%a9-et-instrumentation-Job-Mont%c3%a9r%c3%a9gie-QC-CA-116681554.aspx'
p698
aS'http://jobview.monster.ca/Director-of-Sales-Job-Toronto-GTA-ON-CA-116681613.aspx'
p699
aS'http://jobview.monster.ca/TECHNICIEN-M%c3%89DICAL-TECHNICIENNE-M%c3%89DICALE-Job-CA-116681624.aspx'
p700
aS'http://jobview.monster.ca/Restaurant-Team-Member-Production-Job-Cambridge-ON-CA-116681687.aspx'
p701
aS'http://jobview.monster.ca/Senior-Technician-Job-Fort-Saskatchewan-AB-116720044.aspx'
p702
aS'http://jobview.monster.ca/Residential-Care-Nurse-Job-Penticton-BC-116724123.aspx'
p703
aS'http://jobview.monster.ca/Senior-Accountant-Job-Calgary-AB-116321039.aspx'
p704
aS'http://jobview.monster.ca/Emergency-Nurse-Job-Williams-Lake-BC-116313522.aspx'
p705
aS'http://jobview.monster.ca/Programmer-Machine-Vision-Systems-C-Job-Windsor-ON-116723174.aspx'
p706
aS'http://jobview.monster.ca/Web-Developer-Job-Vancouver-BC-116723313.aspx'
p707
aS'http://jobview.monster.ca/Outside-Sales-Representative-Job-Edmonton-AB-116722857.aspx'
p708
aS'http://jobview.monster.ca/NET-iOS-Developer-Job-Vancouver-BC-116317296.aspx'
p709
aS'http://jobview.monster.ca/Sales-Executive-%e2%80%93-Oil-Gas-Software-Job-Calgary-AB-116472958.aspx'
p710
aS'http://jobview.monster.ca/Project-Manager-Job-Port-Coquitlam-BC-116722825.aspx'
p711
aS'http://jobview.monster.ca/Intermediate-Software-Developers-%e2%80%93-Calgary-Canada-Job-Calgary-AB-115088825.aspx'
p712
aS'http://jobview.monster.ca/Senior-Web-Application-Developer-%e2%80%93-Calgary-Canada-Job-Calgary-AB-115088984.aspx'
p713
aS'http://jobview.monster.ca/Food-Demonstrators-Wanted-in-Ottawa-Job-Ottawa-ON-114678075.aspx'
p714
aS'http://jobview.monster.ca/Telemarketer-Must-have-knowledge-of-electrical-engineering-products-exp-using-Oracle-Job-mississauga-ON-116721872.aspx'
p715
aS'http://jobview.monster.ca/Workplace-Training-Coordinator-Job-Calgary-AB-116722057.aspx'
p716
aS'http://jobview.monster.ca/Canadian-Field-Operations-Manager-Job-Calgary-AB-116320292.aspx'
p717
aS'http://jobview.monster.ca/Cementing-Supervisor-Job-Calgary-AB-CA-116677969.aspx'
p718
aS'http://jobview.monster.ca/Supervisor-Transportation-Services-Safety-Job-Napanee-ON-CA-115865869.aspx'
p719
aS'http://jobview.monster.ca/Contract-Helpdesk-Specialist-Job-Ottawa-CA-116679585.aspx'
p720
aS'http://jobview.monster.ca/CONSTRUCTION-ENGINEERING-OFFICER-Job-CA-116679640.aspx'
p721
aS'http://jobview.monster.ca/Financial-Analyst-Job-Mississauga-ON-116320861.aspx'
p722
aS'http://jobview.monster.ca/Finance-Professional-Business-Case-Evaluation-Job-Vancouver-BC-116322679.aspx'
p723
aS'http://jobview.monster.ca/Business-Analyst-Job-Vancouver-BC-116322825.aspx'
p724
aS'http://jobview.monster.ca/Commercial-Construction-Estimator-Seattle-Job-Vancouver-BC-116322963.aspx'
p725
aS'http://jobview.monster.ca/Financial-Analyst-Job-Toronto-ON-116317098.aspx'
p726
aS'http://jobview.monster.ca/Backend-Developer-Job-Thornhill-ON-116317663.aspx'
p727
aS'http://jobview.monster.ca/District-Manager-Job-Calgary-AB-116317927.aspx'
p728
aS'http://jobview.monster.ca/Corporate-Commercial-Lawyer-Job-Guelph-ON-116314776.aspx'
p729
aS'http://jobview.monster.ca/Diagnostic-Medical-Sonographers-British-Columbia-Canada-Job-Vancouver-BC-116315275.aspx'
p730
aS'http://jobview.monster.ca/Bilingual-Junior-Administrative-Assistant-4445-Job-Ottawa-ON-116315953.aspx'
p731
aS'http://jobview.monster.ca/Librarian-Job-North-Vancouver-BC-116315991.aspx'
p732
aS'http://jobview.monster.ca/Senior-Security-Analyst-Job-Edmonton-AB-115766278.aspx'
p733
aS'http://jobview.monster.ca/Restaurant-Team-Member-Job-North-Bay-ON-114943665.aspx'
p734
aS'http://jobview.monster.ca/Security-Guard-Job-Toronto-ON-115767148.aspx'
p735
aS'http://jobview.monster.ca/Site-Superintendent-Civil-Job-Vancouver-BC-115764697.aspx'
p736
aS'http://jobview.monster.ca/Senior-Accountant-Job-Oakville-ON-115748617.aspx'
p737
aS'http://jobview.monster.ca/PILOT-Job-CA-116679989.aspx'
p738
aS'http://jobview.monster.ca/ARMY-COMMUNICATION-INFORMATION-SYSTEMS-SPECIALIST-Job-CA-116679379.aspx'
p739
aS'http://jobview.monster.ca/MEDICAL-TECHNICIAN-Job-CA-116678636.aspx'
p740
aS'http://jobview.monster.ca/NETWORK-ENGINEER-Job-Gatineau-QC-CA-116675706.aspx'
p741
aS"http://jobview.monster.ca/Part-Time-Sales-Scholar's-Choice-Brampton-Job-Brampton-ON-114647161.aspx"
p742
aS'http://jobview.monster.ca/Accounts-Receivable-Supervisor-Manager-Job-Vancouver-BC-115740192.aspx'
p743
aS'http://jobview.monster.ca/Manager-External-Reporting-Internal-Controls-Job-Calgary-AB-115740224.aspx'
p744
aS'http://jobview.monster.ca/Financial-Controller-Job-Calgary-AB-115740238.aspx'
p745
aS'http://jobview.monster.ca/Bookkeeper-Job-Winnipeg-MB-115740297.aspx'
p746
aS'http://jobview.monster.ca/Finance-Manager-Job-Ajax-ON-115740324.aspx'
p747
aS"http://jobview.monster.ca/Retail-Manager-Scholar's-Choice-Oshawa-Job-Oshawa-ON-115744001.aspx"
p748
aS'http://jobview.monster.ca/Full-Charge-Bookkeeper-Job-Ottawa-ON-115740363.aspx'
p749
aS'http://jobview.monster.ca/MANAGERS-NEEDED-IN-EDMONTON-AREA-Turn-your-love-of-pets-into-a-career-you-love-Job-Edmonton-AB-115744160.aspx'
p750
aS'http://jobview.monster.ca/Analyst-Financial-Planning-Analysis-Job-Concord-ON-115755252.aspx'
p751
aS'http://jobview.monster.ca/Corporate-Account-Manager-Job-Mississauga-ON-115745818.aspx'
p752
aS'http://jobview.monster.ca/MANAGERS-NEEDED-IN-OTTAWA-AREA-Turn-your-love-of-pets-into-a-career-you-love-Job-Orleans-ON-115745879.aspx'
p753
aS'http://jobview.monster.ca/Bilingual-National-Control-Centre-Officer-Casual-Job-Montreal-QC-115755934.aspx'
p754
aS'http://jobview.monster.ca/So-You-Call-Yourself-a-Handyman-Job-Calgary-AB-115373212.aspx'
p755
aS'http://jobview.monster.ca/Java-Developer-Underwriting-Job-Scarborough-ON-115737435.aspx'
p756
aS'http://jobview.monster.ca/Estimator-Job-Fort-Saskatchewan-AB-115737465.aspx'
p757
aS'http://jobview.monster.ca/Recruiter-Job-North-York-CA-116676929.aspx'
p758
aS'http://jobview.monster.ca/Software-Tester-Job-Toronto-GTA-ON-CA-116677346.aspx'
p759
aS'http://jobview.monster.ca/Human-Resources-Consultant-Job-Capitol-Region-Island-BC-CA-116672273.aspx'
p760
aS'http://jobview.monster.ca/Controls-Engineer-Job-Mississauga-ON-CA-110390835.aspx'
p761
aS'http://jobview.monster.ca/Project-Manager-Engineer-Job-Calgary-AB-115737467.aspx'
p762
aS'http://jobview.monster.ca/Nursing-Services-Supervisor-Job-McBride-BC-115756382.aspx'
p763
aS'http://jobview.monster.ca/Mechanical-Engineer-Junior-Job-Mississauga-ON-115737516.aspx'
p764
aS'http://jobview.monster.ca/Outside-Sales-Territory-Development-Job-Richmond-Hill-ON-115756934.aspx'
p765
aS'http://jobview.monster.ca/Outside-Sales-Territory-Development-Job-Scarborough-ON-115757014.aspx'
p766
aS'http://jobview.monster.ca/Outside-Sales-Territory-Development-Job-London-ON-115757091.aspx'
p767
aS'http://jobview.monster.ca/Community-Living-Support-Worker-Job-Fort-St.-James-BC-115757186.aspx'
p768
aS'http://jobview.monster.ca/Outside-Sales-Territory-Development-Job-North-Vancouver-BC-115757469.aspx'
p769
aS'http://jobview.monster.ca/Retail-Assistant-Store-Manager-Nanaimo-Job-Nanaimo-BC-115761916.aspx'
p770
aS'http://jobview.monster.ca/Outside-Sales-Territory-Development-Job-Lethbridge-AB-115757552.aspx'
p771
aS'http://jobview.monster.ca/Builder-Installer-Job-longueuil-QC-115762180.aspx'
p772
aS'http://jobview.monster.ca/Bilingual-Senior-Group-Reporting-Analyst-Job-Toronto-ON-115762682.aspx'
p773
aS'http://jobview.monster.ca/Medical-Radiation-Technologist-Sonographer-Job-Fort-Nelson-BC-115758503.aspx'
p774
aS'http://jobview.monster.ca/Inside-Sales-Cruise-specialist-Job-Toronto-ON-115763195.aspx'
p775
aS'http://jobview.monster.ca/Front-Office-Associate-P-T-Job-Burlington-ON-115763557.aspx'
p776
aS'http://jobview.monster.ca/Cube-Van-Delivery-Driver-Job-Weston-ON-115763564.aspx'
p777
aS'http://jobview.monster.ca/General-Manager-Galaxy-Red-Deer-Job-Red-Deer-CA-116674858.aspx'
p778
aS'http://jobview.monster.ca/Software-Developer-Job-Campbridge-ON-CA-116670123.aspx'
p779
aS'http://jobview.monster.ca/Repr%c3%a9sentant-du-service-%c3%a0-la-client%c3%a8le-saisonnier-RSC-Job-FREDRICTON-NB-CA-116670262.aspx'
p780
aS'http://jobview.monster.ca/Permanent-Release-Manager-Job-Toronto-CA-116670491.aspx'
p781
aS'http://jobview.monster.ca/Management-In-Training-Job-Oshawa-ON-115763575.aspx'
p782
aS'http://jobview.monster.ca/Management-In-Training-Job-Scarborough-ON-115763586.aspx'
p783
aS'http://jobview.monster.ca/Delivery-Driver-DZ-license-Job-Weston-ON-116093092.aspx'
p784
aS'http://jobview.monster.ca/Sales-Associate-Job-Barrie-ON-115763666.aspx'
p785
aS'http://jobview.monster.ca/Part-Time-Front-Office-Associates-Job-Richmond-Hill-ON-115763675.aspx'
p786
aS'http://jobview.monster.ca/Merchandising-Associate-Job-Brampton-ON-115763677.aspx'
p787
aS'http://jobview.monster.ca/Registered-Nurse-%e2%80%93-Intensive-Care-Job-Red-Deer-AB-115763686.aspx'
p788
aS'http://jobview.monster.ca/Management-In-Training-Job-Newmarket-ON-115763695.aspx'
p789
aS'http://jobview.monster.ca/Sales-Associate-Job-Scarborough-ON-115763701.aspx'
p790
aS'http://jobview.monster.ca/Sales-Associate-Job-Richmond-Hill-ON-115763703.aspx'
p791
aS'http://jobview.monster.ca/Part-time-Delivery-Driver-DZ-license-Job-Weston-ON-116093117.aspx'
p792
aS'http://jobview.monster.ca/Director-Compliance-Risk-Job-Burnaby-BC-115763724.aspx'
p793
aS'http://jobview.monster.ca/Field-Sales-Representative-Toronto-Job-Toronto-ON-115761105.aspx'
p794
aS'http://jobview.monster.ca/Manager-Finance-Job-Burnaby-BC-115761119.aspx'
p795
aS'http://jobview.monster.ca/Human-Resources-Manager-Job-Winnipeg-MB-115752939.aspx'
p796
aS'http://jobview.monster.ca/Crew-Afternoons-Midnights-Job-St.-Marys-ON-115753218.aspx'
p797
aS'http://jobview.monster.ca/Permanent-Vmware-Technical-Specialist-Job-Edmonton-Calgary-Vancouver-Ottawa-Toronto-Victoria-CA-116670494.aspx'
p798
aS'http://jobview.monster.ca/Quality-Assurance-Analyst-Job-Quebec-City-QC-CA-116671192.aspx'
p799
aS"http://jobview.monster.ca/D%c3%a9veloppeur-d'applications-mobiles-Job-Montr%c3%a9al-et-Qu%c3%a9bec-QC-CA-116671384.aspx"
p800
aS'http://jobview.monster.ca/Account-Manager-Job-Toronto-ON-CA-103666547.aspx'
p801
aS'http://jobview.monster.ca/Bookkeeper-4411-Job-Ottawa-ON-115753545.aspx'
p802
aS'http://jobview.monster.ca/Restaurant-Manager-Regina-SK-Job-Mississauga-ON-115753721.aspx'
p803
aS'http://jobview.monster.ca/CNC-Programmer-Job-Nisku-AB-116300593.aspx'
p804
aS'http://jobview.monster.ca/Quality-Engineer-Job-Windsor-ON-115683006.aspx'
p805
aS'http://jobview.monster.ca/Intermediate-Java-Developer-Job-Edmonton-AB-116721163.aspx'
p806
aS'http://jobview.monster.ca/C%c3%baram-Developer-Technical-Consultant-Contract-Full-Time-Job-Regina-SK-116721169.aspx'
p807
aS'http://jobview.monster.ca/Quality-Assurance-Coordinator-Edmonton-Job-Edmonton-AB-116720910.aspx'
p808
aS'http://jobview.monster.ca/Administrative-Assistant-Job-Ottawa-ON-116311010.aspx'
p809
aS'http://jobview.monster.ca/Business-Development-Manager-Job-Mississauga-ON-116311078.aspx'
p810
aS'http://jobview.monster.ca/Conseiller-en-voyage-drummondville-Job-Montreal-QC-116311273.aspx'
p811
aS'http://jobview.monster.ca/Carpenter-Tradesperson-Job-Toronto-ON-116311349.aspx'
p812
aS'http://jobview.monster.ca/Replenishment-Analyst-contract-Job-Markham-ON-116313001.aspx'
p813
aS'http://jobview.monster.ca/Intermediate-Senior-PHP-Developer-Job-Toronto-ON-116313411.aspx'
p814
aS'http://jobview.monster.ca/Database-Developer-Job-Burlington-ON-116299311.aspx'
p815
aS'http://jobview.monster.ca/Senior-Financial-Analyst-Job-Waterdown-ON-116299741.aspx'
p816
aS'http://jobview.monster.ca/Maintenance-Engineer-Job-Dartmouth-NS-116300040.aspx'
p817
aS'http://jobview.monster.ca/Account-Manager-B2B-Sales-Job-Markham-ON-CA-98646275.aspx'
p818
aS'http://jobview.monster.ca/Accounts-Receivable-Specialist-Bilingual-Job-Guelph-ON-CA-116669906.aspx'
p819
aS'http://jobview.monster.ca/Project-Manager-Level-2-Job-Ottawa-Region-ON-CA-116666514.aspx'
p820
aS'http://jobview.monster.ca/Warehouse-Associate-17-50-hr-Calgary-Balzac-Job-Calgary-AB-CA-116667018.aspx'
p821
aS'http://jobview.monster.ca/Underground-Superintendent-Job-Saskatoon-SK-116300045.aspx'
p822
aS'http://jobview.monster.ca/Retro-Commissioning-Specialist-Job-Vancouver-BC-116300055.aspx'
p823
aS'http://jobview.monster.ca/Document-Control-Job-Sherwood-Park-AB-116300117.aspx'
p824
aS'http://jobview.monster.ca/Web-Project-Manager-Job-Toronto-ON-116300184.aspx'
p825
aS'http://jobview.monster.ca/Financial-Analyst-Job-Mississauga-ON-116308909.aspx'
p826
aS'http://jobview.monster.ca/Websphere-Administrator-Long-Term-Contract-Job-North-York-ON-116720429.aspx'
p827
aS'http://jobview.monster.ca/Registered-Nurses-RN-Job-Brockville-ON-115758492.aspx'
p828
aS'http://jobview.monster.ca/Outside-Sales-Professional-Job-Mississauga-ON-116701648.aspx'
p829
aS'http://jobview.monster.ca/Sales-Representative-Job-Calgary-AB-116221234.aspx'
p830
aS'http://jobview.monster.ca/Restaurant-Team-Member-Job-Dartmouth-NS-115359787.aspx'
p831
aS'http://jobview.monster.ca/Information-Architect-Software-Development-Job-Stittsville-ON-114940424.aspx'
p832
aS'http://jobview.monster.ca/Physiotherapist-Job-Vanderhoof-BC-115756910.aspx'
p833
aS'http://jobview.monster.ca/Agent-de-services-%c3%83-la-client%c3%83-%cc%88le-Job-Montreal-QC-116717241.aspx'
p834
aS'http://jobview.monster.ca/Agents-de-prise-de-rendez-vous-POSTE-PERMANENT-15-50-h-Job-Montreal-QC-116218599.aspx'
p835
aS"http://jobview.monster.ca/Agent-de-qualit%c3%83%c2%a9-13-00-de-l'heure-Contrat-8-10-semaine-Job-Montreal-QC-116447497.aspx"
p836
aS'http://jobview.monster.ca/Finance-Manager-Job-Toronto-ON-116304890.aspx'
p837
aS'http://jobview.monster.ca/Financial-Systems-Analyst-Job-Toronto-GTA-ON-CA-116662108.aspx'
p838
aS'http://jobview.monster.ca/Senior-NET-Developer-Architect-Job-Toronto-GTA-ON-CA-116662552.aspx'
p839
aS'http://jobview.monster.ca/Net-Developer-Job-Toronto-GTA-ON-CA-116662554.aspx'
p840
aS'http://jobview.monster.ca/Customer-Care-Administrator-Downtown-Toronto-Job-Toronto-GTA-ON-CA-116662851.aspx'
p841
aS'http://jobview.monster.ca/Human-Resources-Assistant-Job-Mississauga-ON-116305238.aspx'
p842
aS'http://jobview.monster.ca/Laboratory-Technician-Job-Fort-Saskatchewan-AB-116301101.aspx'
p843
aS'http://jobview.monster.ca/Metallurgist-Mining-Job-Contrecoeur-QC-116301189.aspx'
p844
aS'http://jobview.monster.ca/Pr%c3%83%c2%a9pos%c3%83%c2%a9-Service-%c3%83-la-client%c3%83-%cc%88le-Kiosque-de-bienvenue-Job-Montreal-QC-116636717.aspx'
p845
aS'http://jobview.monster.ca/Caissiers-et-caissi%c3%83-%cc%88res-Job-Place-Bonaventure-QC-116564930.aspx'
p846
aS"http://jobview.monster.ca/Agent-de-centre-d'appel-Front-line-Domaine-de-l'assurance-voyage-Job-Montreal-QC-116176045.aspx"
p847
aS'http://jobview.monster.ca/Analyste-%c3%83-la-Facturation-et-aux-Ajustements-Job-Montreal-QC-116554586.aspx'
p848
aS'http://jobview.monster.ca/Accounts-Receivable-Clerk-Job-Oakville-ON-115765572.aspx'
p849
aS'http://jobview.monster.ca/Warehouse-Receiver-Montreal-Job-Montreal-QC-116719105.aspx'
p850
aS'http://jobview.monster.ca/PartsPro-Auto-Parts-Counter-Person-Job-Edmonton-AB-116719248.aspx'
p851
aS'http://jobview.monster.ca/Driver-Job-Toronto-GTA-ON-116719250.aspx'
p852
aS'http://jobview.monster.ca/Nursing-Supervisor-Job-Grande-Prairie-AB-116719317.aspx'
p853
aS'http://jobview.monster.ca/Credit-Assistant-Personal-Loans-Job-Calgary-AB-116719525.aspx'
p854
aS'http://jobview.monster.ca/Underwriting-Manager-A-Downtown-Hub-Oliver-Square-Job-Edmonton-AB-116689490.aspx'
p855
aS'http://jobview.monster.ca/EH-S-Manager-Job-London-ON-116718437.aspx'
p856
aS'http://jobview.monster.ca/Simulation-Service-Engineer-Job-Calgary-AB-116718588.aspx'
p857
aS'http://jobview.monster.ca/Move-In-Coordinator-Job-Toronto-GTA-ON-CA-116662852.aspx'
p858
aS'http://jobview.monster.ca/Move-In-Coordinator-Job-Toronto-GTA-ON-CA-116662853.aspx'
p859
aS'http://jobview.monster.ca/Seasonal-Customer-Experience-Representative-CER-Chapters-Regent-Mall-Job-FREDRICTON-NB-CA-116662859.aspx'
p860
aS'http://jobview.monster.ca/Assistant-Customer-Experience-Manager-ACEM-Primary-Candidate-Identified-Job-Toronto-GTA-ON-CA-116662861.aspx'
p861
aS'http://jobview.monster.ca/Jr-Fund-Accountant-Contract-Job-Toronto-ON-116556929.aspx'
p862
aS'http://jobview.monster.ca/Outside-Sales-Representative-Industrial-Job-Windsor-ON-116665942.aspx'
p863
aS'http://jobview.monster.ca/Outside-Sales-Representative-Contractor-n8-Job-Windsor-ON-116665947.aspx'
p864
aS'http://jobview.monster.ca/Inside-sales-counter-representative-Job-Windsor-ON-116666094.aspx'
p865
aS'http://jobview.monster.ca/Draftsperson-Job-Calgary-AB-115566076.aspx'
p866
aS'http://jobview.monster.ca/Quality-Assurance-Technical-Inspector-Job-Calgary-AB-115551140.aspx'
p867
aS'http://jobview.monster.ca/Pr%c3%a9pos%c3%a9-aux-ventes-internes-commercial-Job-Mount-Royal-QC-115900742.aspx'
p868
aS'http://jobview.monster.ca/Registered-Pharmacy-Technician-Trenton-YIG-4106-location-Job-Trenton-ON-116718013.aspx'
p869
aS'http://jobview.monster.ca/Bilingual-Customer-Service-Representative-Job-Brampton-ON-116718078.aspx'
p870
aS'http://jobview.monster.ca/SAP-MM-Job-Calgary-AB-116718230.aspx'
p871
aS'http://jobview.monster.ca/Systems-Support-Assoc-Job-Scarborough-ON-116472002.aspx'
p872
aS'http://jobview.monster.ca/Manager-Renal-Program-Job-Trail-BC-116724322.aspx'
p873
aS'http://jobview.monster.ca/Compensation-Analyst-Job-Waterloo-ON-115742233.aspx'
p874
aS'http://jobview.monster.ca/Account-Manager-Production-Chemicals-Job-Calgary-AB-116301004.aspx'
p875
aS'http://jobview.monster.ca/Recovery-Accountant-Job-North-York-ON-115692234.aspx'
p876
aS'http://jobview.monster.ca/Audit-Manager-Job-Toronto-ON-116304927.aspx'
p877
aS'http://jobview.monster.ca/Seasonal-Customer-Experience-Representative-CER-Job-LAKESHORE-ON-CA-116662865.aspx'
p878
aS'http://jobview.monster.ca/Customer-Experience-Manager-CEM-Large-Format-Store-Job-LAKESHORE-ON-CA-116662868.aspx'
p879
aS'http://jobview.monster.ca/Mine-Surveyor-Job-montreal-NL-CA-116663005.aspx'
p880
aS'http://jobview.monster.ca/Visual-Stock-Job-Toronto-GTA-ON-CA-116663054.aspx'
p881
aS'http://jobview.monster.ca/Level-3-Business-Analyst-Job-Stittsville-ON-114940268.aspx'
p882
aS'http://jobview.monster.ca/Lead-Audiologist-Job-Fort-St-John-BC-115756769.aspx'
p883
aS'http://jobview.monster.ca/Machine-Shop-Supervisor-Job-Edmonton-AB-116312844.aspx'
p884
aS'http://jobview.monster.ca/Outside-Sales-Territory-Development-Job-Toronto-ON-115756833.aspx'
p885
aS'http://jobview.monster.ca/Project-Controls-Specialist-Job-Airdrie-AB-116300035.aspx'
p886
aS'http://jobview.monster.ca/Senior-Estimator-Steel-Job-Delta-BC-116300047.aspx'
p887
aS'http://jobview.monster.ca/Vessel-Engineer-Div-2-ASME-Job-Calgary-AB-116300062.aspx'
p888
aS'http://jobview.monster.ca/Asset-Integrity-Administrator-Job-Calgary-AB-116300108.aspx'
p889
aS'http://jobview.monster.ca/Senior-Project-Manager-Job-Edmonton-AB-116300065.aspx'
p890
aS'http://jobview.monster.ca/Graphic-Designer-Job-Toronto-ON-116300144.aspx'
p891
aS'http://jobview.monster.ca/Designer-Graphique-Job-Montr%c3%a9al-QC-115688543.aspx'
p892
aS'http://jobview.monster.ca/NET-Team-Lead-w-Secret-Clearance-Ottawa-Job-Ottawa-ON-116722379.aspx'
p893
aS'http://jobview.monster.ca/Systems-Administrator-Job-Toronto-ON-116299284.aspx'
p894
aS'http://jobview.monster.ca/Senior-IT-Application-Auditor-Job-Toronto-ON-116299339.aspx'
p895
aS'http://jobview.monster.ca/Software-Engineer-Job-Toronto-ON-116299337.aspx'
p896
aS'http://jobview.monster.ca/Inside-Sales-Rep-Job-Ottawa-ON-115685171.aspx'
p897
aS'http://jobview.monster.ca/Processing-Supervisor-Job-Toronto-GTA-ON-CA-116663339.aspx'
p898
aS'http://jobview.monster.ca/Java-Developer-Job-Toronto-GTA-ON-CA-116661266.aspx'
p899
aS'http://jobview.monster.ca/Senior-Web-Developer-Job-Toronto-GTA-ON-CA-116253478.aspx'
p900
aS'http://jobview.monster.ca/Sustaining-Design-Onsite-Team-Lead-Job-Toronto-GTA-ON-CA-116253482.aspx'
p901
aS'http://jobview.monster.ca/Senior-Graphic-Designer-Job-Winnipeg-MB-116311005.aspx'
p902
aS'http://jobview.monster.ca/Maintenance-Mechanic-Millwright-Job-Winnipeg-MB-116311008.aspx'
p903
aS'http://jobview.monster.ca/Industrial-Electrician-Job-Winnipeg-MB-116311257.aspx'
p904
aS'http://jobview.monster.ca/Agent-de-service-%c3%a0-la-client%c3%a8le-Support-aux-ventes-Job-Montreal-QC-116722241.aspx'
p905
aS'http://jobview.monster.ca/IT-Audit-Manager-Job-Toronto-ON-116307881.aspx'
p906
aS'http://jobview.monster.ca/IP-Litigation-Assistant-4444-Job-Ottawa-ON-116308189.aspx'
p907
aS'http://jobview.monster.ca/Controller-Job-Toronto-ON-116313469.aspx'
p908
aS'http://jobview.monster.ca/Security-Guard-Job-Toronto-ON-116313616.aspx'
p909
aS'http://jobview.monster.ca/Looking-to-Get-Your-Hands-Dirty-LABOURER-Job-Calgary-AB-115373352.aspx'
p910
aS'http://jobview.monster.ca/Senior-Manager-Financial-Operations-Job-Concord-ON-116311463.aspx'
p911
aS'http://jobview.monster.ca/Conseiller-en-voyages-Job-Montreal-QC-116311435.aspx'
p912
aS'http://jobview.monster.ca/Senior-Controls-Applications-Engineer-Job-Vancouver-BC-115754506.aspx'
p913
aS'http://jobview.monster.ca/RN-OR-Endoscopy-Suite-Job-Fort-St.-John-BC-115758649.aspx'
p914
aS'http://jobview.monster.ca/Sales-Representative-Industrial-Water-Treatment-Job-Red-Deer-AB-115759492.aspx'
p915
aS'http://jobview.monster.ca/RN-Maternity-Job-Prince-Rupert-BC-115758467.aspx'
p916
aS'http://jobview.monster.ca/Regional-Coordinator-%e2%80%93-Volunteer-Services-Job-Prince-George-BC-115760267.aspx'
p917
aS'http://jobview.monster.ca/Production-Supervisor-Job-Toronto-GTA-ON-CA-116253578.aspx'
p918
aS'http://jobview.monster.ca/Estimators-Senior-Job-Vancouver-NL-CA-116253655.aspx'
p919
aS'http://jobview.monster.ca/Billing-Representative-Job-Toronto-GTA-ON-CA-115326530.aspx'
p920
aS'http://jobview.monster.ca/Stress-Structural-Analysis-Structural-Design-Job-CA-113777984.aspx'
p921
aS'http://jobview.monster.ca/Senior-Accountant-Job-Don-Mills-ON-115759617.aspx'
p922
aS'http://jobview.monster.ca/Field-Sales-Representative-Calgary-Job-Calgary-AB-115761037.aspx'
p923
aS'http://jobview.monster.ca/Senior-Recruiter-Tech-Job-Vancouverncouver-BC-115762566.aspx'
p924
aS'http://jobview.monster.ca/Delivery-Driver-DZ-license-Job-Burlington-ON-115763561.aspx'
p925
aS'http://jobview.monster.ca/Outside-Sales-Territory-Development-Job-Sudbury-ON-115757288.aspx'
p926
aS'http://jobview.monster.ca/Outside-Sales-Territory-Development-Job-Thunder-Bay-ON-115757379.aspx'
p927
aS'http://jobview.monster.ca/Outside-Sales-Territory-Development-Job-Halifax-NS-115757197.aspx'
p928
aS'http://jobview.monster.ca/RN-Operating-Room-Job-Prince-Rupert-BC-115757573.aspx'
p929
aS'http://jobview.monster.ca/Restaurant-Team-Member-F-T-Afternoon-Shift-3-15pm-to-11-15pm-Job-Comox-BC-115761372.aspx'
p930
aS'http://jobview.monster.ca/Management-In-Training-Job-Concord-ON-115763567.aspx'
p931
aS'http://jobview.monster.ca/Appliance-Electronics-Sales-Associate-Job-Concord-ON-115763566.aspx'
p932
aS'http://jobview.monster.ca/Web-Master-1-2-days-month-Job-Stouffville-ON-116719880.aspx'
p933
aS'http://jobview.monster.ca/Assistant-Warehouse-Manager-Job-Burlington-ON-115763577.aspx'
p934
aS'http://jobview.monster.ca/Front-Office-Customer-Service-Associate-Job-Richmond-Hill-ON-115763580.aspx'
p935
aS'http://jobview.monster.ca/Management-In-Training-Job-Richmond-Hill-ON-115763588.aspx'
p936
aS'http://jobview.monster.ca/Management-In-Training-Job-Mississauga-ON-115763596.aspx'
p937
aS'http://jobview.monster.ca/Account-Executive-Inside-Sales-Job-Toronto-GTA-ON-CA-116264675.aspx'
p938
aS'http://jobview.monster.ca/Packaging-Operator-Job-Toronto-GTA-ON-CA-116264652.aspx'
p939
aS'http://jobview.monster.ca/Developer-Non-Specialized-Developer-Senior-Job-Toronto-GTA-ON-CA-116652216.aspx'
p940
aS'http://jobview.monster.ca/Permanent-Senior-Hardware-Engineer-RF-Digital-Design-Job-Calgary-CA-116652128.aspx'
p941
aS'http://jobview.monster.ca/Appliance-Electronics-Sales-Associate-Job-Richmond-Hill-ON-115763600.aspx'
p942
aS'http://jobview.monster.ca/Management-In-Training-Job-Barrie-ON-115763604.aspx'
p943
aS'http://jobview.monster.ca/Registered-Nurse-%e2%80%93-Critical-Care-ICU-Nurses-Job-Calgary-AB-115763648.aspx'
p944
aS'http://jobview.monster.ca/Sales-Associate-Job-Burlington-ON-115763665.aspx'
p945
aS'http://jobview.monster.ca/Management-In-Training-Job-Burlington-ON-115763668.aspx'
p946
aS'http://jobview.monster.ca/Sales-Associate-Job-Concord-ON-115763673.aspx'
p947
aS'http://jobview.monster.ca/Sales-Associate-Job-Mississauga-ON-115763688.aspx'
p948
aS'http://jobview.monster.ca/Sales-Associate-Job-Brampton-ON-115763689.aspx'
p949
aS'http://jobview.monster.ca/Management-In-Training-Job-Burlington-ON-115763706.aspx'
p950
aS'http://jobview.monster.ca/Part-time-Customer-Care-Associate-Job-Mississauga-ON-115763697.aspx'
p951
aS'http://jobview.monster.ca/Part-Time-Warehouse-Associate-Job-Mississauga-ON-115763709.aspx'
p952
aS'http://jobview.monster.ca/Registered-Nurse-%e2%80%93-Intensive-Care-Job-Red-Deer-AB-115763723.aspx'
p953
aS'http://jobview.monster.ca/Sales-Representative-Job-Victoria-BC-115763751.aspx'
p954
aS'http://jobview.monster.ca/Service-Administrator-Job-Coquitlam-BC-115763790.aspx'
p955
aS'http://jobview.monster.ca/Applications-Support-Technical-Analyst-Job-Toronto-ON-115764458.aspx'
p956
aS'http://jobview.monster.ca/Registered-Nurse-Psychiatric-Nurse-Job-Dawson-Creek-BC-115764042.aspx'
p957
aS'http://jobview.monster.ca/Inside-Sales-Specialist-Representative-%e2%80%93-Ontario-Quebec-Territories-Job-York-ON-CA-116318208.aspx'
p958
aS'http://jobview.monster.ca/Contract-Business-Analyst-Networking-Project-Exp-Job-Toronto-CA-116646344.aspx'
p959
aS'http://jobview.monster.ca/Heavy-Duty-Mechanic-Job-Diavik-NT-CA-116647079.aspx'
p960
aS'http://jobview.monster.ca/Contract-Systems-Analyst-in-UAT-Production-AS400-or-Wintel-AIX-1-Year-Contract!-Job-Toronto-CA-116647563.aspx'
p961
aS'http://jobview.monster.ca/Derivatives-Lawyer-Job-Toronto-ON-115742453.aspx'
p962
aS'http://jobview.monster.ca/RN-Combined-Acute-Public-Health-Job-Dease-Lake-BC-115756188.aspx'
p963
aS'http://jobview.monster.ca/Nurse-Practitioner-Job-Prince-George-BC-115756293.aspx'
p964
aS'http://jobview.monster.ca/RN-OR-Endoscopy-Suite-Job-Fort-St.-John-BC-115756446.aspx'
p965
aS'http://jobview.monster.ca/Mechanical-Drafter-Job-Delta-BC-115737466.aspx'
p966
aS'http://jobview.monster.ca/Senior-Business-Analyst-Job-Edmonton-AB-115737468.aspx'
p967
aS'http://jobview.monster.ca/Draftsperson-Residential-Job-Edmonton-AB-115737787.aspx'
p968
aS'http://jobview.monster.ca/Repr%c3%a9sentant-Est-du-Canada-Job-Pointe-Claire-QC-115360223.aspx'
p969
aS'http://jobview.monster.ca/Construction-Specialists-Job-Fort-McMurray-AB-115737789.aspx'
p970
aS'http://jobview.monster.ca/SITE-ASSISTANT-Hammer-Down-Your-Future-Job-Calgary-AB-115373085.aspx'
p971
aS'http://jobview.monster.ca/PRESENTATION-Merchandise-MANAGER-CORNWALL-Job-Cornwall-ON-115745474.aspx'
p972
aS'http://jobview.monster.ca/Customer-Service-Technician-Job-Calgary-AB-115550835.aspx'
p973
aS'http://jobview.monster.ca/Assistant-Restaurant-Manager-Job-Freelton-ON-115744363.aspx'
p974
aS'http://jobview.monster.ca/MANAGERS-NEEDED-IN-CALGARY-AREA-Turn-your-love-of-pets-into-a-career-you-love-Job-Calgary-AB-115744540.aspx'
p975
aS'http://jobview.monster.ca/Inventory-Specialist-Job-Kitchener-ON-115755343.aspx'
p976
aS'http://jobview.monster.ca/Divisional-Accountant-Job-Vancouver-BC-115377120.aspx'
p977
aS'http://jobview.monster.ca/Citifinancial-Consumer-Financial-Sales-Representative-PETERBOROUGH-ON-Temporary-Full-Time-Job-Central-Ontario-ON-CA-116648484.aspx'
p978
aS'http://jobview.monster.ca/Contract-Telecom-Network-Build-Project-Manager-Job-Calgary-Vancouver-Ottawa-Toronto-CA-116644846.aspx'
p979
aS'http://jobview.monster.ca/Bilingual-French-Technical-Support-Call-Centre-Job-Markham-CA-116645595.aspx'
p980
aS'http://jobview.monster.ca/Contract-Application-Development-Analysis-Job-Calgary-CA-116646342.aspx'
p981
a.