(S'seconds.+TODAY'
p0
(lp1
Vhttp://www.career.dtu.dk/
p2
aVhttp://www.bio.dtu.dk/english.aspx
p3
aVhttp://www.aqua.dtu.dk/English.aspx
p4
aVhttp://www.truste.com/
p5
aVhttp://www.youatweb.com/
p6
aVhttp://support.google.com/websearch/bin/answer.py?hl=en&answer=106230
p7
aVhttp://www.wysiwygwebbuilder.com/languages.html
p8
aVhttp://www.wysiwygwebbuilder.com/getting_started.html
p9
aVhttp://www.wysiwygwebbuilder.com/support.html
p10
aVhttp://www.apple.com/feedback/ipod.html
p11
aVhttp://www.newscientist.com/topic/feedback
p12
aVhttp://feedback.help.yahoo.com/feedback.php?.src=FINANCE
p13
aVhttp://www.youtube.com/watch?v=v4boTbv9_nU
p14
aVhttp://www.youtube.com/watch?v=fOoBEYvtmkc
p15
aVhttp://www.theaustralian.com.au/australian-it/opinion/windows-8-can-run-on-apple-macs/story-e6frgb0o-1226507781757
p16
aVhttp://www.techrepublic.com/blog/window-on-windows/its-microsoft-patch-tuesday-november-2012/6897
p17
aVhttp://www.juriba.com/blog-windows-7-enterprise-migration/
p18
aVhttp://blogs.windows.com/windows_phone/b/windowsphone/archive/2012/11/10/now-in-the-store-words-with-friends-amp-draw-something.aspx
p19
aVhttp://www.thisismoney.co.uk/money/experts/article-2203231/My-ex-wont-pay-bills-I-return-iPad-present.html
p20
aVhttp://www.salon.com/2012/10/31/sex_with_my_ex_dont_tell_me/
p21
aVhttp://www.newyorker.com/online/blogs/shouts/2012/11/to-my-ex-wife.html
p22
aVhttp://www.youtube.com/watch?v=lL4L4Uv5rf0
p23
aVhttp://www.youtube.com/watch?v=3Wj8Yxa309E
p24
aVhttp://news.yahoo.com/dont-even-think-eating-guy-fieris-times-square-034744640.html
p25
aVhttp://www.nbcnews.com/technology/technolog/clear-your-google-search-history-now-240860
p26
aVhttp://www.engadget.com/2012/09/21/facebook-activity-log-search-history/
p27
aVhttp://www.nlm.nih.gov/bsd/disted/pubmedtutorial/020_400.html
p28
aVhttp://www.ifixit.com/Answers/View/107844/iPhone+4s+screen+still+white+and+flickering+after+screen+replacement.
p29
aVhttp://community.skype.com/t5/Windows/Empty-Blue-Screen-STILL/td-p/1062518
p30
aVhttp://www.daniweb.com/hardware-and-software/pc-hardware/monitors-displays-and-video-cards/threads/41145/laptop-screen-turned-black-but-laptop-still-running/8
p31
aVhttp://www.securedsigning.com/
p32
aVhttps://www.agreensign.com/
p33
aVhttp://www.arx.com/information/document-management/digital-signatures-in-a-document-intensive-organization.htm
p34
aVhttp://www.dfo-mpo.gc.ca/index-eng.htm
p35
aVhttp://www.hhs.gov/
p36
aVhttp://www.foodandwaterwatch.org/
p37
aVhttp://www.americanprogress.org/
p38
aVhttp://www.booksforafrica.org/
p39
aVhttp://www.artsusa.org/
p40
aVhttp://www.portersquarebooks.com/event
p41
aVhttp://www.citylights.com/info/?fa=events
p42
aVhttp://www.thirdplacebooks.com/auth-event
p43
aVhttp://seekingalpha.com/article/992061-comments-on-pope-resources-third-quarter-results
p44
aVhttp://www.bp.com/extendedgenericarticle.do?categoryId=2012968&contentId=7078509
p45
aVhttp://investor.yahoo.net/results.cfm
p46
aVhttp://www.amazon.com/Know-Who-You-Are-What/dp/1451650515
p47
aVhttp://www.youtube.com/watch?v=LUrUPzLm5SI
p48
aVhttp://www.youtube.com/watch?v=OAyUNI3_V2c
p49
aVhttp://search.lubbockonline.com/fast-elements.php?type=standard&profile=lubbock&querystring=%22(732)%20940-9658%22
p50
aVhttp://search.staugustine.com/fast-elements.php?type=standard&profile=staugustine&querystring=%22(732)%20940-9658%22
p51
aVhttp://www.realtor.com/realestateandhomes-detail/9658-Hunt-Club-Trl-Ne_Warren_OH_44484_M30648-69312
p52
aVhttp://www.w3schools.com/tags/tag_option.asp
p53
aVhttp://www.options.co.za/
p54
aVhttp://www.youtube.com/watch?v=40k2T69iwTg
p55
aVhttp://dictionary.reference.com/browse/please
p56
aVhttp://www.flickr.com/photos/swnsng/8163435076/
p57
aVhttp://www.youtube.com/watch?v=w3p4AAga4b8
p58
aVhttp://www.facebook.com/trustmestore
p59
aVhttp://www.youtube.com/watch?v=wXS7dGnVa7M
p60
aVhttp://melissakowalchuk.com/2011/04/share-me-like-me-retweet-me-1-me-just-don%E2%80%99t-ignore-me/
p61
aVhttp://www.google.com/chromeframe
p62
aVhttp://www.bigfra.me/
p63
aVhttp://www.fullframefest.org/
p64
aVhttps://www.salfordhomesearch.co.uk/
p65
aVhttp://www.remax.com/residential/property_search/us_property_search/index.aspx
p66
aVhttp://www.austinhomesearch.com/
p67
aVhttp://www.mnogosearch.org/doc33/msearch-stored.html
p68
aVhttp://packages.python.org/Flask-Cache/
p69
aVhttp://tapestry.apache.org/tapestry5/apidocs/org/apache/tapestry5/annotations/Cached.html
p70
aVhttp://groups.google.com/group/makergear/browse_thread/thread/566405199ac412bd
p71
aVhttp://www.curse.com/addons/wow/advanced-trade-skill-window/576069
p72
aVhttp://www.gamershell.com/news_145073.html
p73
aVhttp://www.facebook.com/page_guidelines.php
p74
aVhttp://www.nature.com/info/tandc.html
p75
aVhttp://www.hhs.gov/ohrp/assurances/assurances/filasurt.html
p76
aVhttp://www.kr.tuwien.ac.at/comma2012/
p77
aVhttp://www.oxfordcomma.co.uk/
p78
aVhttp://en.wikipedia.org/wiki/Serial_comma
p79
aVhttp://www.saysyou.net/
p80
aVhttps://www.yousendit.com/
p81
aVhttp://www.youtube.com/watch?v=p2eCHdqFYj4
p82
aVhttp://en.wikipedia.org/wiki/Enter
p83
aVhttp://www.enter.it/
p84
aVhttp://sports.yahoo.com/blogs/nfl-shutdown-corner/six-nfl-quarterbacks-enter-week-11-perfect-playing-201147816--nfl.html
p85
aVhttp://us.macmillan.com/comedyinaminorkey
p86
aVhttp://www.gameinformer.com/b/news/archive/2011/01/06/translating-the-cover.aspx
p87
aVhttp://www.icanlocalize.com/site/about-us/cms-translations/
p88
aVhttp://www.ramadaplazaomaha.com/water-resort/hours-calendar.php
p89
aVhttp://www.nasdaq.com/symbol/key/after-hours
p90
aVhttp://www.locksmithky.com/
p91
aVhttp://www.tripadvisor.co.uk/ShowUserReviews-g946276-d896920-r138077811-The_Manor_Hotel-Mundesley_Norfolk_East_Anglia_England.html
p92
aVhttp://www.thejournal.ie/leaving-cert-results-2012-similar-557980-Aug2012/
p93
aVhttp://www.erh.noaa.gov/bgm/casestudy/2006/nov16/TextMostly/Slide12.html
p94
aVhttp://www.cincyjungle.com/2012/9/23/3378620/instant-recap-bengals-withstand-redskins-offense-with-38-31-win
p95
aVhttp://www.lovefilm.com/help/dyn_faqs.html?faq_cat=website&editorial_id=5207
p96
aVhttp://www.advancednflstats.com/2011/11/wp-instant-offensive-improvement.html
p97
aVhttp://www.epa.gov/payt/
p98
aVhttp://www.usanetwork.com/series/suits/games/legalmind/
p99
aVhttp://www.usa.gov/Citizen/Services/Change-Of-Address.shtml
p100
aVhttp://www.directlyrics.com/rihanna-we-found-love-lyrics.html
p101
aVhttp://www.facebook.com/weday
p102
aVhttp://www.facebook.com/me2westyle
p103
aVhttp://www.hi.u-tokyo.ac.jp/iriki.html
p104
aVhttp://passport.gov.in/cpv/Instructions4.htm
p105
aVhttp://legacy.library.ucsf.edu/
p106
aVhttps://www.myopenid.com/directory
p107
aVhttp://en.wikipedia.org/wiki/Website
p108
aVhttp://www.i-site.org.nz/
p109
aVhttp://www.cdc.gov/ncezid/
p110
aVhttp://www.fastcodesign.com/1670318/infographic-a-history-of-every-major-sports-championship-ever
p111
aVhttp://www.nytimes.com/interactive/2012/08/05/sports/olympics/the-100-meter-dash-one-race-every-medalist-ever.html
p112
aVhttp://www.showbizworks.com/agent/miss-slightly--s-homage-to-marilyn-monroe
p113
aVhttp://www.spdbooks.org/Producte/9780942996791/homage-to-etel-adnan.aspx
p114
aVhttp://www.refinery29.com/a-homage-to-daphne-guinness
p115
aVhttp://www.examiner.com/article/beckett-grading-services-opens-new-southern-california-location
p116
aVhttp://www.unilodge.com.au/Melbourne/A%27Beckett/
p117
aVhttp://www.192.com/atoz/people/beckett/michael/
p118
aVhttp://www.5-spice.com/location.php
p119
aVhttp://www.onlocationvacations.com/tag/scary-movie-5-filming-locations/
p120
aVhttp://www.csustan.edu/teachered/facultystaff/betts/handouts/pdfs/five%20themes%20of%20geography.pdf
p121
aVhttp://www.hmrc.gov.uk/taxcredits/start/claiming/income-hours/state-benefits.htm
p122
aVhttp://www.businessinsider.com/if-you-include-these-10-elements-in-your-proposal-youre-2010-8?op=1
p123
aVhttp://www.kevinmd.com/blog/2012/10/include-perfect-school-lunch.html
p124
aVhttps://support.twitter.com/articles/96646-how-to-save-searches
p125
aVhttps://twitter.com/search?q=%23searches
p126
aVhttp://support.google.com/websearch/bin/answer.py?hl=en&answer=465
p127
aVhttp://www.kcm.edu.np/
p128
aVhttp://www.acti.com/product/detail/Box_Camera/KCM-5211E
p129
aVhttp://www.kcmcanada.ca/
p130
aVhttp://www.entrepreneur.com/video/223507
p131
aVhttp://www.engadget.com/2010/02/10/asus-planning-a-killer-product-for-june-eee-pad-noise-grows/
p132
aVhttp://gulfnews.com/about-gulf-news/al-nisr-portfolio/xpress/buy-a-product-for-free-at-new-dubai-store-1.1105285
p133
aVhttp://www.google.com.au/
p134
aVhttp://googleblog.blogspot.com/
p135
aVhttp://mail.google.com/
p136
aVhttp://www.incapsula.com/the-incapsula-blog/item/414-advanced-caching-dynamic-through-learning
p137
aVhttp://wordpress.org/support/topic/wp-cache-0-cached-pages
p138
aVhttp://social.technet.microsoft.com/Forums/da/outlook/thread/1427614a-b3ec-45cf-a4cc-5a4ed8acaf3d
p139
aVhttp://www.dailymotion.com/ebk
p140
aVhttp://www.ebkrobots.com/
p141
aVhttps://twitter.com/DJEBK
p142
aVhttp://www.petersons.com/college-search.aspx
p143
aVhttp://www.search.asic.gov.au/gns001.html
p144
aVhttp://www.nsf.gov/awardsearch/
p145
aVhttp://www.brainstormnashville.com/doc/faq
p146
aVhttp://journals.cambridge.org/article_S0034670500017800
p147
aVhttp://www.gamasutra.com/view/pressreleases/176268/Spike_TVs_Geoff_Keighley_to_Moderate_Conversation_on_PastPresent_and_Future_of_METAL_GEAR.php
p148
aVhttp://www.sciencemag.org/external-ref?access_num=Smith%20R&link_type=AUTHORSEARCH
p149
aVhttp://content.healthaffairs.org/external-ref?access_num=Smith%20AK&link_type=AUTHORSEARCH
p150
aVhttp://www.imdb.com/title/tt0530189/
p151
aVhttp://www.abc.net.au/radionational/programs/bydesign/
p152
aVhttp://www.visaeurope.com/en/cardholders/verified_by_visa.aspx
p153
aVhttp://www.youtube.com/watch?v=he3DJLXbebI
p154
aVhttp://www.icrc.org/eng/war-and-law/protected-persons/index.jsp
p155
aVhttp://www.ec.gc.ca/ap-pa/default.asp?lang=En&n=7FC45404-1
p156
aVhttp://www.wdpa.org/
p157
aVhttp://www.netmarketshare.com/operating-system-market-share.aspx?qprid=10
p158
aVhttp://www.epcwid1.org/
p159
aVhttp://www.epa.gov/region9/southelmonte
p160
aVhttp://www.medel.com/
p161
aVhttp://www.co.el-dorado.ca.us/
p162
aVhttp://www.eldoctorow.com/
p163
aVhttp://www.medicinenet.com/script/main/art.asp?articlekey=163301
p164
aVhttp://www.ssa.gov/retire2/applying6.htm
p165
aVhttp://en.wikiquote.org/wiki/Fight_Club_(novel)
p166
aVhttp://fasdcenter.samhsa.gov/documents/PlanningWomenInRecoverySummitManual.pdf
p167
aVhttp://smartrecoveryaustralia.com.au/
p168
aVhttp://www.recovery.org/
p169
aVhttps://www.unodc.org/documents/justice-and-prison-reform/CPhandbook-120109.pdf
p170
aVhttp://www.bristol.gov.uk/page/planning-and-building-regulations/commenting-or-objecting-planning-applications
p171
aVhttp://www.undp.mn/publications/pme-handbook.pdf
p172
aVhttp://jobs.efinancialcareers.hk/Private_Banking_%7C_Wealth_Management-Financial_Planning.htm
p173
aVhttp://www.planningplanet.com/forums/primavera-version-pm5-pm6/506493/undo-option-urgent
p174
aVhttp://jobs.efinancialcareers-gulf.com/Private_Banking_%7C_Wealth_Management-Financial_Planning.htm
p175
aVhttp://ny.racked.com/archives/2012/10/20/weekend_shopping_report_153.php
p176
aVhttp://www.pwc.com.au/media-centre/2012/online-shopping-strategy-jul12.htm
p177
aVhttp://guide.lugnet.com/shop/
p178
aVhttp://lmgtfy.com/
p179
aVhttp://www.allyou.com/
p180
aVhttp://earthquake.usgs.gov/earthquakes/dyfi/
p181
aVhttp://www.ustream.tv/
p182
aVhttp://www.kickstarter.com/help/school
p183
aVhttp://www.bbc.co.uk/cbbc/games/beaker-you-choose
p184
aVhttp://patft.uspto.gov/
p185
aVhttp://www.epa.gov/search.html
p186
aVhttp://www.google.co.in/
p187
aVhttp://vimeo.com/10221162
p188
aVhttp://www.imdb.com/title/tt0088170/
p189
aVhttp://www.nlm.nih.gov/bsd/disted/pubmedtutorial/020_010.html
p190
aVhttp://netforbeginners.about.com/od/navigatingthenet/tp/top_10_search_engines_for_beginners.htm
p191
aVhttp://googleblog.blogspot.com/2011/03/1s-right-recommendations-right-when-you.html
p192
aVhttps://dev.twitter.com/docs/api/1/get/users/search
p193
aVhttp://firstmonday.org/htbin/cgiwrap/bin/ojs/index.php/fm/article/view/3340/2985
p194
aVhttp://www.helium.com/items/567377-the-effect-of-the-internet-on-reading-habits
p195
aVhttp://deals.servicebundles.com/pennsylvania-verizon-internet-deal-reading.html
p196
aVhttp://wattsupwiththat.com/2012/08/11/update-on-bob-phelan-please-read/
p197
aVhttp://www.metanoia.org/suicide/
p198
aVhttp://www.amyleblanc.com/2012/11/please-read-strike-debt-campaign
p199
aVhttp://get-me-out-of-here-level-b.software.informer.com/
p200
aVhttp://www.neoseeker.com/forums/38007/t1482630-very-confused-here-level-3-hoe-not-earned-yet-plz-help/
p201
aVhttp://community.manutd.com/forums/t/244135.aspx
p202
aVhttp://dickvitaleonline.com/?cat=22&option=com_wordpress&Itemid=220
p203
aVhttp://www.ozarksteel.com/company/history.php
p204
aVhttp://jamesmaslowfan.com/imgs/index.php?cat=17
p205
aVhttp://help.learningrecordsservice.org.uk/qcf-quals/results/
p206
aVhttp://www.minedu.govt.nz/~/media/MinEdu/Files/EducationSectors/Schools/ENROL/ScreenByScreenGuideDHBUsers.pdf
p207
aVhttp://kc-mm.com/tag/results-screen/
p208
aVhttp://stuffwhitepeoplelike.com/
p209
aVhttp://www.dhmo.org/
p210
aVhttp://www.java.com/
p211
aVhttp://www.nasa.gov/mission_pages/viking/
p212
aVhttp://www.medicinenet.com/diabetes/focus.htm
p213
aVhttp://www.washingtontimes.com/news/2012/oct/11/parent-1-and-parent-2-could-legally-replace-mom-an/?page=all
p214
aVhttp://amanita-design.net/samorost-1/
p215
aVhttp://www.formula1.com/
p216
aVhttp://www.freeonlineusers.com/
p217
aVhttp://theeconomiccollapseblog.com/archives/are-you-better-off-40-statistics-that-will-absolutely-shock-you
p218
aVhttp://www.mcgraw-hill.co.uk/html/0335227244.html
p219
aVhttp://directory.stat.ucla.edu/jiashen-you
p220
aVhttp://webhelp.esri.com/arcgisserver/9.2/dotnet/manager/publishing/static_map_svcs.htm
p221
aVhttp://client-services.bentley.edu/content/outlook-non-cached-and-cached-exchange-mode
p222
aVhttp://social.technet.microsoft.com/Forums/en-US/exchange2010/thread/e458c180-3c21-4b93-84bc-cdeaac60a8c2
p223
aVhttp://gizmodo.com/5960289/htc-droid-dna-vs-iphone-5-and-everyone-else-whos-got-the-best-display
p224
aVhttp://en.wikipedia.org/wiki/RAID
p225
aVhttp://www.dailynews.com/ci_21731314/iphone-5-vs-galaxy-s3-who-wins-battle
p226
aVhttp://www.theverge.com/2012/6/27/3120727/google-now-time-location-search
p227
aVhttp://mycareer.com.au/search/?arr=2
p228
aVhttp://jobs.thetimes.co.uk/
p229
aVhttp://adsabs.harvard.edu/abstract_service.html
p230
aVhttp://search.trln.org/
p231
aVhttp://www.gutenberg.org/catalog/world/search
p232
aVhttp://vimeo.com/29723817
p233
aVhttp://www.npr.org/blogs/thetwo-way/2012/07/12/156682838/nike-announces-they-will-take-paternos-name-off-child-care-center
p234
aVhttp://www.theregister.co.uk/2012/07/28/oauth_editor_quits/
p235
aVhttp://www.youtube.com/watch?v=wILLEBK07wg
p236
aVhttp://www.4shared.com/mp3/uoe5pXo4/DPast_4_FoUr_Time_-_BaCk_StreE.html
p237
aVhttp://www.youtube.com/watch?v=cYi4wpzN8yM
p238
aVhttp://support.mozilla.org/en-US/kb/Helping%20with%20Live%20Chat
p239
aVhttp://www.mozilla.org/en-US/firefox/livebookmarks.html
p240
aVhttp://www.halfords.com/webapp/wcs/stores/servlet/ACArticleDisplay?langId=-1&storeId=10001&catalogId=17151&categoryId=245154&articleId=897474
p241
aVhttp://msdn.microsoft.com/en-us/library/ms152787.aspx
p242
aVhttp://surveys.ope.ed.gov/athletics/
p243
aVhttp://www.interactivereporting.com/
p244
aVhttp://www.nber.org/papers/w1392
p245
aVhttp://www.klipfolio.com/satellite/what-are-business-metrics
p246
aVhttp://www.nber.org/chapters/c10021.pdf
p247
aVhttp://www.mostlydigital.ca/
p248
aVhttp://www.mostlybooksaz.com/
p249
aVhttp://sports.yahoo.com/blogs/fantasy-roto-arcade/mostly-nfl-notes-adrian-peterson-calvin-johnson-return-091157632--fantasy.html
p250
aVhttp://www.rainn.org/get-information/statistics/frequency-of-sexual-assault
p251
aVhttp://learnenglish.britishcouncil.org/en/english-grammar/adverbials/adverbials-time/how-often
p252
aVhttp://www.brainyquote.com/quotes/keywords/often.html
p253
aVhttp://ynpn.org/
p254
aVhttp://resources.joomla.org/
p255
aVhttp://www.grantprofessionals.org/
p256
aVhttp://www.doc.govt.nz/parks-and-recreation/places-to-visit/lord-of-the-rings-locations/
p257
aVhttp://topdocumentaryfilms.com/
p258
aVhttp://www.gijoemovie.com/
p259
aVhttp://www.baseball-reference.com/players/g/gillji01.shtml
p260
aVhttp://www.yellowpages.com.au/act/yarralumla/neil-r-gill-12011175-listing.html
p261
aVhttp://www.facebook.com/pages/Gill-Foundation/132968166459
p262
aVhttp://thepage.time.com/
p263
aVhttp://thepage.name/
p264
aVhttp://www.yellowpages.com/
p265
aVhttp://docs.mozy.com/docs/en/admin-pro-win/guide/concepts/about_resources_panel_a.html
p266
aVhttp://help.yahoo.com/l/us/yahoo/smallbusiness/webhosting/billing/billing-23.html
p267
aVhttp://docs.oracle.com/cd/E37097_01/doc/doc.42/e35129/aadm_mg_service.htm
p268
aVhttp://www.huffingtonpost.com/news/online-privacy/
p269
aVhttp://www.youtube.com/watch?v=kLgJYBRzUXY
p270
aVhttp://www.nsteens.org/Videos/Post-to-bePrivate
p271
aVhttp://www.pocket-lint.com/news/47627/how-to-get-google-maps-back-ios6
p272
aVhttp://accounts.google.com/NewAccount
p273
aVhttp://mappinghacks.com/talks/software_2006/slide8a.html
p274
aVhttp://www.courier-mta.org/imap/
p275
aVhttp://email.about.com/cs/standards/a/imap_basics.htm
p276
aVhttp://www.dovecot.org/
p277
aVhttp://www.fe.hku.hk/clear/pedagogy.html
p278
aVhttp://www.det.wa.edu.au/education/cmis/eval/downloads/pd/litreview.pdf
p279
aVhttp://socialpedagogy.co.uk/history.htm
p280
aVhttp://tech.groups.yahoo.com/group/webanalytics/message/2677
p281
aVhttp://www.linkedin.com/company/click-a-taxi/learn-more-about-click-a-taxi-437334/product
p282
aVhttp://en.wikipedia.org/wiki/Click_fraud
p283
aVhttp://windows.microsoft.com/en-US/windows7/get-know-windows-7
p284
aVhttp://articles.latimes.com/2012/jul/25/business/la-fi-tn-mountain-lion-features--20120725
p285
aVhttp://www.netmagazine.com/features/ux-design-start-ups-get-know-your-users
p286
aVhttp://www.makeuseof.com/answers/disable-people-box-facebook/
p287
aVhttp://www.threelobed.com/tlr/tlr080.html
p288
aVhttp://latimesblogs.latimes.com/entertainmentnewsbuzz/2010/12/box-office-tron-good-but-not-great-how-do-you-know-flops-yogi-bear-soft.html
p289
aVhttp://en.wikipedia.org/wiki/Article_(grammar)
p290
aVhttp://allthingsd.com/20121110/is-this-a-21-million-clock/
p291
aVhttp://www.newamericancentury.org/
p292
aVhttp://portal.hud.gov/huddoc/12-21ml.pdf
p293
aVhttp://www.youtube.com/watch?v=qxzUCVvnUYI
p294
aVhttp://cdp.sagepub.com/content/current
p295
aVhttp://en.wikipedia.org/wiki/Billboard_(magazine)
p296
aVhttp://www.cbsnews.com/8301-501368_162-57540026/carly-rae-jepsen-named-billboards-rising-star/
p297
aVhttp://en.wikipedia.org/wiki/Somebody_That_I_Used_to_Know
p298
aVhttp://connect.dpreview.com/post/1953933122/welcome-to-connect
p299
aVhttp://connect.hbo.com/
p300
aVhttp://www.sonos.com/shop/products/connect
p301
aVhttps://trac.osgeo.org/proj/
p302
aVhttp://www.4teachers.org/
p303
aVhttp://www.epa.gov/aboutepa/region4.html
p304
aVhttp://www.thetradepartsspecialists.co.uk/
p305
aVhttp://www.tps.org/
p306
aVhttp://www.tps.com.au/
p307
aVhttp://www.h3c.com/portal/Technical_Support___Documents/Technical_Documents/Switches/H3C_S3600_Series_Switches/Command/Command/H3C_S3600_CM-Release_1510(V1.04)/200707/207701_1285_0.htm
p308
aVhttp://www.amazon.com/Redirect-Surprising-Science-Psychological-Change/dp/0316051888
p309
aVhttp://thesaurus.com/browse/redirect
p310
aVhttp://sourceware.org/binutils/docs/as/
p311
aVhttps://twitter.com/as
p312
aVhttp://www.nytimes.com/2012/10/09/world/europe/georgian-leader-bidzina-ivanishvili-emerges-as-an-enigma.html?pagewanted=all
p313
aVhttp://help.wildapricot.com/display/DOC/Widgets+-+integrating+Wild+Apricot+into+another+website
p314
aVhttp://news.sky.com/story/1011193/toyota-issues-another-massive-recall
p315
aVhttp://insidesearch.blogspot.com/2012/04/another-step-to-reward-high-quality.html
p316
aVhttp://www.ppchero.com/adwords-custom-labels/
p317
aVhttp://www.frictionalgames.com/forum/thread-18879.html
p318
aVhttp://stackoverflow.com/questions/12909147/creating-a-custom-sharing-view-similar-to-new-ios-6-button-sharing
p319
aVhttp://www.youtube.com/watch?v=2WBjClN7gos
p320
aVhttp://community.us.playstation.com/t5/UNCHARTED-3-Drake-s-Deception/Unable-to-start-any-custom-game-unable-to-start-public-games-on/td-p/38015787/page/2
p321
aVhttp://www.modaco.com/topic/359085-q-are-there-any-custom-roms-for-this-tablet/
p322
aVhttp://stickerobot.com/
p323
aVhttp://www.customcraftvinyl.com/
p324
aVhttp://www.tarpsnow.com/
p325
aVhttp://www.stotlandesigns.com/about-us
p326
aVhttp://www.amazon.com/gp/bit/apps/web/SERP/search/ref=bit_bds-amzn_serp_ie_us?ie=UTF8&tbrId=v1_abb-channel-12_9ea489946fea4c93b981661a1f07ce1e_23_23_20120505_US_ie_sp_&tagbase=bds-amzn&query=vinyl+signs
p327
aVhttp://www.leoparddocks.com/download-docks
p328
aVhttp://www.youtube.com/watch?v=MntbN1DdEP0
p329
aVhttp://www.railstotrails.org/
p330
aVhttp://www.youtube.com/watch?v=uYFmxgzPP3Q
p331
aVhttp://carloz.newsvine.com/_news/2012/11/13/15143948-numbers-guy-paul-ryan-still-misleading-tries-to-spin-election-results-to-wisconsin-media
p332
aVhttp://www.dailymotion.com/video/xugkcf_google-tries-to-reassure-after-results-shock_news
p333
aVhttp://docs.lib.purdue.edu/cgi/viewcontent.cgi?article=1500&context=cstech
p334
aVhttp://www.sid.ir/en/ViewPaper.asp?ID=39501&varStr=1;JACQUET%20PH.,MCVEY%20B.,SZPANKOWSKI%20W.;JOURNAL%20OF%20THE%20IRANIAN%20STATISTICAL%20SOCIETY%20(JIRSS);November%202004;3;2;139;148
p335
aVhttp://www.lsi.upc.edu/~aofa05/program.pdf
p336
aVhttp://www.princeton.edu/~verdu/ITMSRI.html
p337
aVhttp://www.microsoft.com/enterprisesearch/en/us/search-server-express.aspx
p338
aVhttp://www.safer-networking.org/
p339
aVhttp://www.google.ca/advanced_search
p340
aVhttp://www.wheelbasealloys.com/17_Inch_ZCW_Rave_Alloy_Wheels__4408
p341
aVhttp://www.youtube.com/watch?v=1Ntg5hz-Zcw
p342
aVhttp://www.nsccom.com/zcwdirectionaltap1output-1.aspx
p343
aVhttp://www.facebook.com/help/115916435160582/
p344
aVhttps://lists.wikimedia.org/mailman/listinfo/unblock-en-l
p345
aVhttp://support.google.com/talk/answer/23942?hl=en
p346
aVhttp://www.bris.ac.uk/library/support/findinginfo/search-engines/
p347
aVhttp://musictouse.com/
p348
aVhttp://www.google.com/insidesearch/features/images/searchbyimage.html
p349
aVhttp://cdburnerxp.se/en/home
p350
aVhttp://www.filehippo.com/download_internet_explorer_xp/
p351
aVhttp://www.wowwiki.com/Experience_point
p352
aVhttp://www.youtube.com/watch?v=DhlkEDY_O84
p353
aVhttp://www.justsomelyrics.com/732086/Passion-One-More-try-Lyrics
p354
aVhttp://www.sing365.com/music/lyric.nsf/One-More-Try-lyrics-George-Michael/152CED2CB0AC12FC4825686200144DB4
p355
aVhttp://timapantanir.is/manual/company
p356
aVhttp://support.piso13.com/entries/20828553-calendar-settings-hours-settings
p357
aVhttp://www.britannica.com/EBchecked/topic/92917/canonical-hours
p358
aVhttp://www.ew.com/ew/article/0,,20483133_20620111,00.html
p359
aVhttp://www.videojug.com/film/how-to-master-the-basic-forehand
p360
aVhttp://www.guardian.co.uk/film/2012/sep/02/the-master-review
p361
aVhttp://www.mtv.com/music/videos/
p362
aVhttp://videos.sify.com/
p363
aVhttp://www.youtube.com/watch?v=HrxqURLWoe0
p364
aVhttp://www.imdb.com/title/tt0408790/
p365
aVhttp://artofflightmovie.com/
p366
aVhttp://www.youtube.com/watch?v=xnVNNR6CEOE
p367
aVhttp://www.timeanddate.com/worldclock/city.html?n=64
p368
aVhttp://www.timeanddate.com/worldclock/city.html?n=256
p369
aVhttp://www.timeanddate.com/worldclock/city.html?n=235
p370
aVhttp://bornthiswayfoundation.org/
p371
aVhttp://www.addthis.com/
p372
aVhttp://www.youtube.com/watch?v=99QDBLX9JQI
p373
aVhttp://howto.cnet.com/8301-11310_39-57456663-285/how-to-create-custom-themes-in-gmail/
p374
aVhttp://mashable.com/2012/11/13/gmail-petraeus-scandal-security/
p375
aVhttp://gigaom.com/2010/03/05/rapportive-gmail-crm/
p376
aVhttp://www.911cd.net/forums//index.php?showtopic=5327
p377
aVhttp://radio-mall.com/ohtxtracks.htm
p378
aVhttp://sourceforge.net/projects/solarex/files/Solarex%200.30/
p379
aVhttp://jcmc.indiana.edu/vol13/issue1/lange.html
p380
aVhttp://www.buzzfeed.com/virginmobilelive/20-publicly-shamed-animal-twitpics-5l87
p381
aVhttp://www.arc.gov.au/about_arc/national_ip.htm
p382
aVhttp://www.cec.org/Page.asp?PageID=30101&ContentID=16025&SiteNodeID=282
p383
aVhttp://www.pharmacyboard.gov.au/News/2012-09-13-media-release.aspx
p384
aVhttp://abbey-roads.blogspot.com/2012/09/archbishop-nienstedt-speaks-publicly-on.html
p385
aVhttp://mp1st.com/2012/05/16/modern-warfare-3-free-face-off-maps-erosion-and-aground-now-live-on-xbox-360/
p386
aVhttp://www.csmonitor.com/World/Middle-East/2012/0608/Iran-s-nuclear-program-4-things-you-probably-didn-t-know/President-Mahmoud-Ahmadinejad-never-said-that-Israel-should-be-wiped-off-the-map.
p387
aVhttp://www.youtube.com/watch?v=siyyloGG4Nk
p388
aVhttp://www.cnn.com/2012/11/07/opinion/kamarck-five-things/index.html
p389
aVhttp://pathways.thinkport.org/about/about7.cfm
p390
aVhttp://skippyslist.com/list/
p391
aVhttp://support.google.com/googleplay/bin/answer.py?hl=en&answer=1257611
p392
aVhttp://www.tms.org/pubs/journals/jom/matters/matters-0108.html
p393
aVhttp://www.amazon.com/Smart-Cant-Clutter-Series-ebook/dp/B0054DW3BW
p394
aVhttp://betanews.com/2012/10/29/windows-is-doomed/
p395
aVhttp://www.zdnet.com/who-is-julie-larson-green-meet-the-new-head-of-windows-7000007292/
p396
aVhttp://ping.windowsdream.com/winner.html
p397
aVhttp://www.7tutorials.com/what-public-folder-how-use-it
p398
aVhttp://blogs.msdn.com/b/umits/archive/2012/11/06/windows-azure-training-kit-october-2012.aspx
p399
aVhttp://blogs.msdn.com/b/umits/archive/2012/11/09/windows-azure-conf-is-next-week.aspx
p400
aVhttp://www.upworthy.com/101-books-to-read-this-summer-instead-of-50-shades-of-grey
p401
aVhttp://nashvillepubliclibrary.org/bringingbookstolife/
p402
aVhttp://kidshealth.org/parent/growth/learning/reading_babies.html
p403
aVhttp://teksyndicate.com/news/2012/10/18/apple-publicly-apologize-samsung-uk
p404
aVhttp://allthingsd.com/20120718/u-k-judge-orders-apple-to-publicly-recant-galaxy-copycat-claim/
p405
aVhttp://www.twincities.com/business/ci_20879704/minnesota-ceo-rallying-fellow-execs-publicly-oppose-marriage
p406
aVhttp://kristibezy.theworldrace.org/?filename=everything-you-need-to-know-about-month-3
p407
aVhttp://www.trulia.com/voices/Rentals/I_asked_about_month_to_month_rentals_is_a_year_le-417580
p408
aVhttp://www.infoplease.com/spot/ramadan1.html
p409
aVhttp://www.trt.thalesgroup.com/ump-cnrs-thales/
p410
aVhttp://www.umpholdings.my/
p411
aVhttp://www.littleleague.org/umpires/stump_the_ump.htm
p412
aVhttp://www.webdesignerdepot.com/2011/09/advertising-as-we-know-it-is-dead/
p413
aVhttp://www.jstor.org/stable/2118455
p414
aVhttp://www.communicationencyclopedia.com/public/tocnode?id=g9781405131995_yr2012_chunk_g97814051319956_ss26-1
p415
aVhttp://www.radiohsl.com/
p416
aVhttp://www.haysystems.com/mobile-networks/hsl-femtocell/
p417
aVhttp://www.hsl37.navy.mil/00Home.htm
p418
aVhttps://www.commonapp.org/CommonApp/Members.aspx
p419
aVhttp://www.mediacollege.com/internet/troubleshooter/traceroute.html
p420
aVhttp://en.wikipedia.org/wiki/List_of_films_that_most_frequently_use_the_word_%22fuck%22
p421
aVhttp://www.skynews.com.au/business/
p422
aVhttp://edition.cnn.com/BUSINESS/index.html
p423
aVhttp://www.mercurynews.com/business
p424
aVhttp://www.bbc.co.uk/sport/football/teams/york-city/results
p425
aVhttp://www.tottenhamhotspur.com/spurs/Fixtures+and+Results/fixtures-and-results.page
p426
aVhttp://www.trackie.com/track-and-field/forum/view-topic.php?id=20125
p427
aVhttp://www.fiveguys.com/
p428
aVhttp://en.wikipedia.org/wiki/5_(number)
p429
aVhttp://fiveeventcenter.com/
p430
aVhttp://www.popsci.com/science/article/2012-07/signals-void
p431
aVhttp://www.amazon.com/Zombie-Survival-Guide-Complete-Protection/dp/1400049628
p432
aVhttp://www.youtube.com/watch?v=74mhQyuyELQ
p433
aVhttp://www.cucinottaimages.com/
p434
aVhttp://openlearn.open.ac.uk/mod/oucontent/view.php?id=398988
p435
aVhttp://www.amazon.com/Reading-Images-Grammar-Visual-Design/dp/0415106001
p436
aVhttp://sites.google.com/site/otolithsbooks/Home/collective-instant-by-william-allegrezza
p437
aVhttp://www.insideredbox.com/redbox-instant-by-verizon-to-lauch-by-holidays/
p438
aVhttp://paidcontent.org/2012/07/24/verizonredbox-jv-has-name-exec-team-begins-testing/
p439
aVhttp://www.youtube.com/watch?v=KFEVGiNuM9E
p440
aVhttp://vietnamexportsimports.com/International-Trade-News/news/vietnam-trade-news-daily/22121-vinacafe-bien-hoa-to-operate-instant-coffee-plant-ahead-of-schedule.html
p441
aVhttp://computer.howstuffworks.com/e-mail-messaging/instant-messaging.htm
p442
aVhttp://www.youtube.com/watch?v=5Re-j5Yas-Q
p443
aVhttp://www.youtube.com/watch?v=ZunGEL-jD-Y
p444
aVhttp://ga.water.usgs.gov/edu/earthhowmuch.html
p445
aVhttp://haremanse09.blog.co.uk/2012/07/23/web-branding-nobody-s-perfect-ndash-and-that-is-good-14187677/
p446
aVhttp://www.ea.com/gamescom
p447
aVhttp://www.austinchronicle.com/blogs/arts/2012-02-24/special-kaye/
p448
aVhttp://www.w3.org/TR/REC-CSS1/
p449
aVhttp://www.freeonlineusers.com/
p450
aVhttp://www.formula1.com/
p451
aVhttp://www.nypost.com/p/pagesix/item_LRE4IQjoJ87gVFw1SIXQIN
p452
aVhttp://whitepages.co.nz/
p453
aVhttp://www.yellowpages.ca/
p454
aVhttp://en.wikipedia.org/wiki/4G
p455
aVhttp://en.wikipedia.org/wiki/LTE_(telecommunication)
p456
aVhttp://eae.alberta.ca/post-secondary/institutions/public/accountability.aspx
p457
aVhttp://searchengineland.com/googles-results-get-more-personal-with-search-plus-your-world-107285
p458
aVhttps://www.nursys.com/
p459
aVhttps://dev.twitter.com/discussions/9075
p460
aVhttp://twitter.com/TheRealKimJ/status/265024288401289216
p461
aVhttp://www.netmums.com/coffeehouse/children-parenting-190/tweens-813/822580-suggestions-please-i-dont-have-clue.html
p462
aVhttp://www.tripadvisor.com/ShowTopic-g293916-i3687-k5900704-Help_with_planning_please_as_limited_time_only-Bangkok.html
p463
aVhttp://www.naxos.com/series/english_song_series.htm
p464
aVhttp://www.esolcourses.com/topics/learn-english-with-songs.html
p465
aVhttp://www.ctu.edu.vn/centers/cfl/learningresource/songs/index.htm
p466
aVhttps://itunes.apple.com/us/app/idw-comics/id335630043?mt=8
p467
aVhttp://tfwiki.net/wiki/IDW_Publishing
p468
aVhttp://www.acdi-cida.gc.ca/idw
p469
aVhttp://www.zdnet.com/the-microsoft-surface-rt-is-not-for-me-7000007372/
p470
aVhttp://news.cnet.com/8301-10805_3-57548201-75/ballmer-says-microsoft-surface-sales-off-to-modest-start/
p471
aVhttp://www.microsoft.com/surface/
p472
aVhttp://www.apple.com/osx/uptodate/
p473
aVhttp://dev.mysql.com/doc/en/date-and-time-functions.html
p474
aVhttp://sat.collegeboard.org/register/sat-us-dates
p475
aVhttp://www.epa.gov/brownfields/news/index.htm
p476
aVhttp://www.rco.wa.gov/grants/grant_news.shtml
p477
aVhttp://www.knightfoundation.org/what-we-fund/innovating-media
p478
aVhttp://www.addthis.com/
p479
aVhttp://lmgtfy.com/
p480
aVhttp://www.history.com/this-day-in-history
p481
aVhttp://www.amazon.co.uk/Tasting-Past-Recipes-Stone-Present/dp/0752447947
p482
aVhttp://allrecipes.com/recipes/pasta/top.aspx
p483
aVhttp://thomdunn.wordpress.com/beer/recipes/
p484
aVhttp://proofwhisky.com/
p485
aVhttp://www.proofnightclubchicago.com/
p486
aVhttp://proofbakeryla.com/
p487
aVhttp://www.aspbs.com/materials.htm
p488
aVhttp://www.aspbs.com/enn/
p489
aVhttp://www.catholic.org/encyclopedia/
p490
aVhttp://www.amazon.com/Hidden-Gospels-Search-Jesus-Lost/dp/0195156315
p491
aVhttp://career-advice.monster.co.uk/searching-for-jobs/planning-a-job-search/where-can-i-find-hidden-vacancies/article.aspx
p492
aVhttp://www.games.com/game/hidden-expedition-everest/
p493
aVhttp://www.youtube.com/watch?v=6P1vf_7DoLA
p494
aVhttp://www.youtube.com/watch?v=I43GUnZN_s4
p495
aVhttp://www.youtube.com/watch?v=6B26asyGKDo
p496
aVhttp://www.youtube.com/watch?v=_MSe2vuZyGw
p497
aVhttp://www.mangapark.com/manga/hands-off/v8/c0/3-1
p498
aVhttp://www.allmusic.com/album/face-off-vol-1-mw0000593495
p499
aVhttp://www.youtube.com/watch?v=6rliBplCi1M
p500
aVhttp://www.cesarsway.com/shop/Mastering-Leadership-Series-Vol3-Your-New-Dog-First-Day-and-Beyond-NTSC
p501
aVhttp://woodyguthrie.org/mm5/merchant.mvc?Screen=PROD&Store_Code=TWGS&Product_Code=CDASCH1&Category_Code=REC
p502
aVhttp://www.hbo.com/schedule/go/detail/Six%20Feet%20Under%2039:%20I%27m%20Sorry,%20I%27m%20Lost/294254/606714
p503
aVhttp://www.last.fm/music/Miloslav+Kabel%C3%A1%C4%8D/_/Suita+Op.+39+I.+Andante
p504
aVhttp://wikimapia.org/15391622/MADAN-LAL-39-I-BLOCK
p505
aVhttp://www.zimbra.com/desktop7/help/en_US/Zdesktop/z-Setting_up_Yahoo!_Mail_Plus,_Gmail,_AOL_account_setup.htm
p506
aVhttp://www.rightinbox.com/
p507
aVhttp://google.about.com/od/gmailtipsandtricks/tp/Gmail_Tips.htm
p508
aVhttp://abcnews.go.com/Politics/martin-luther-kings-speech-dream-full-text/story?id=14358231
p509
aVhttp://www.towleroad.com/2012/11/marriage-equality-victory-declared-in-maine.html
p510
aVhttp://www.siemens.com/press/en/pressrelease/
p511
aVhttp://www.leftofthedialrecords.com/
p512
aVhttp://leftofplumb.com/
p513
aVhttp://en.wikipedia.org/wiki/Left_of_Cool
p514
aVhttp://www.earthshare.org/give-at-the-office.html
p515
aVhttp://www.amazon.com/Do-More-Than-Give-Practices/dp/0470891440
p516
aVhttp://www.commentarymagazine.com/article/what-the-evangelicals-give-the-jews/
p517
aVhttp://www.youtube.com/watch?v=5Rc2n3kR0L8
p518
aVhttp://en.wikipedia.org/wiki/The_Wallet
p519
aVhttp://www.tv-links.eu/tv-shows/Seinfeld_596/season_4/episode_5/
p520
aVhttp://firstread.nbcnews.com/_news/2012/11/14/15162332-pelosi-to-remain-as-democratic-leader?lite
p521
aVhttp://www.guardian.co.uk/world/2012/nov/12/petraeus-affair-senate-investigation-broadwell
p522
aVhttp://www.youtube.com/watch?v=GYQfWJNWe3I
p523
aVhttp://www.pagesabookstore.com/
p524
aVhttp://www.pages.ab.ca/
p525
aVhttp://www.pages.id.au/
p526
aVhttp://www.ruralelec.org/
p527
aVhttp://www.retailenvironments.org/
p528
aVhttp://www.imdb.com/title/tt0066995/
p529
aVhttp://nieer.org/publications/nieer-working-papers/nieer-working-paper-%E2%80%93-what-do-we-know-about-impact-publicly-funded
p530
aVhttp://www.formspring.me/captiveculture/q/327887073283425952
p531
aVhttp://www.quora.com/Domain-Name-System-DNS/Which-publicly-available-DNS-servers-are-the-best-privacy-wise
p532
aVhttp://www.renzogracie.com/
p533
aVhttp://graciecarroll.com/
p534
aVhttp://en.wikipedia.org/wiki/Gracie_(film)
p535
aVhttp://answers.yahoo.com/question/index?qid=20121112111700AAKZxR5
p536
aVhttp://www.webopedia.com/end_user.html
p537
aVhttp://www.guardian.co.uk/media-network/media-network-blog/2012/oct/02/fixed-mobile-design-inflexible
p538
aVhttp://www.fox19.com/category/7197/news-team
p539
aVhttp://www.19actionnews.com/link/365019/weather-page-school-closings
p540
aVhttp://www.wxow.com/news/
p541
aVhttp://www.pointfoundation.org/
p542
aVhttp://www.pointpark.edu/
p543
aVhttp://www.pointinternational.com/
p544
aVhttp://www.onetonline.org/link/summary/29-2034.00
p545
aVhttp://journalists.org/2012/08/29/2012-online-journalism-awards-finalists-announced/
p546
aVhttp://www.joystiq.com/2012/10/26/mechwarrior-online-stomps-into-open-beta-october-29/
p547
aVhttp://www.northeastern.edu/publicsafety/procedures/nonemerg.html
p548
aVhttp://www.facebook.com/events/529823907034469/
p549
aVhttp://www.youneedabudget.com/blog/2010/reporting-the-past-vs-planning-for-the-future-whiteboard-wednesday/
p550
aVhttp://www.pivotcycles.com/demo
p551
aVhttp://www.yelp.com/biz/sunday-cycles-bike-shop-phoenix-2
p552
aVhttp://www.ripoffreport.com/sporting-good-manufactures/a-z-cycles-jason-gor/a-z-cycles-jason-gorido-je-mmddm.htm
p553
aVhttp://www.justrage.com/Tech_Tickers/something-awful-is-a-scam/
p554
aVhttp://www.youtube.com/watch?v=lorlsAJzi_Y
p555
aVhttp://youthoughtwewouldntnotice.com/blog3/tag/rage-against-the-machine/
p556
aVhttp://www.imdb.com/title/tt0268978/
p557
aVhttp://iopscience.iop.org/1751-8121
p558
aVhttp://www.mta.info/nyct/service/aline.htm
p559
aVhttp://www.jpma.org.pk/full_article_text.php?article_id=3815
p560
aVhttp://sites.wff.nasa.gov/code250/docs/PFRR_EIS/Volume_I_Individual_Files/Volume_I_Table_of_Contents.pdf
p561
aVhttp://www.home.agilent.com/owc_discussions/thread.jspa?threadID=33361&tstart=45
p562
aVhttp://www.who.int/evidence/bod/
p563
aVhttp://www.scdhec.gov/health/disease/
p564
aVhttp://web.med.unsw.edu.au/pathmus/
p565
aVhttp://www.celiac.org/
p566
aVhttp://www.alz.co.uk/
p567
aVhttp://www.thelancet.com/journals/laninf/issue/current
p568
aVhttp://observer.com/2012/06/is-4-world-trade-center-better-than-the-big-one-inside-the-other-tower-about-to-top-out/
p569
aVhttp://www.youtube.com/watch?v=zsnIg-LQWvY
p570
aVhttp://aviationhumor.net/the-us-standard-railroad-gauge-is-4-feet-8-5-inches/
p571
aVhttp://www.youtube.com/watch?v=vWMySZa0TzQ
p572
aVhttp://www.youtube.com/watch?v=hDUQhaB5EgQ
p573
aVhttp://www.guardian.co.uk/sport/video/2012/aug/12/olympics-team-gb-sing-queen-video
p574
aVhttp://howto.cnet.com/8301-11310_39-57492497-285/opt-in-to-googles-account-chooser-for-easier-multiple-account-log-ins/
p575
aVhttp://openid-provider.appspot.com/
p576
aVhttp://lifehacker.com/5877927/how-to-sign-up-for-a-google-account-without-being-forced-into-google%252B-or-gmail
p577
aVhttp://dev.lutece.paris.fr/jira/browse/OPENID-1
p578
aVhttps://aur.archlinux.org/packages.php?ID=62139
p579
aVhttp://www.barnraiser.org/openid_usability_part_1:_the_email_address_versus_the_openid_uri
p580
aVhttps://www.ibm.com/developerworks/mydeveloperworks/blogs/pgmrk/entry/my_recommendations_of_ibm_developerworks_last_week_openid_for_java_web_applications5
p581
aVhttps://issues.apache.org/jira/browse/SHIRO-21
p582
aVhttp://jasig.275507.n4.nabble.com/Re-cas-dev-updating-3-4-x-maintenance-branch-td4410872.html
p583
aVhttp://acronyms.thefreedictionary.com/A+Rat+in+Tom%27s+House+Might+Eat+Tom%27s+Ice+Cream
p584
aVhttp://uk.linkedin.com/pub/dir/Thomas/Barbor
p585
aVhttp://www.latimes.com/sports/sportsnow/la-sp-sn-patriots-tom-brady-20121022,0,4495680.story
p586
aVhttp://learning.blogs.nytimes.com/2009/10/22/me-fail-english-thats-unpossible-studying-literature-with-the-simpsons/
p587
aVhttp://books.google.co.uk/books/about/Righting_English_That_s_Gone_Dutch.html?id=fs472dICNgMC
p588
aVhttp://www.youtube.com/watch?v=8iSD9lPVY6Q
p589
aVhttp://www.endo-society.org/journals/scientificstatements/upload/edc_scientific_statement.pdf
p590
aVhttp://www.prescriptiondrug-info.com/topics/pill-ar/342/
p591
aVhttp://www.dia.govt.nz/diawebsite.nsf/wpg_URL/Services-Anti-Spam-Email-Scams-May-2012?OpenDocument
p592
aVhttp://scholar.google.com/
p593
aVhttp://www.google.com/reader
p594
aVhttp://www.google.ie/
p595
aVhttp://searchenginewatch.com/
p596
aVhttp://puzzlemaker.discoveryeducation.com/WordSearchSetupForm.asp
p597
aVhttp://www.godaddy.com/domains/search.aspx
p598
aVhttp://www.lwronline.co.uk/
p599
aVhttp://flybase.org/reports/FBgn0010602.html
p600
aVhttp://www.sckcen.be/LWRDEPUTY/
p601
aVhttp://www.un.org/ga/president/63/interactive/uneconference.shtml
p602
aVhttp://en.wikipedia.org/wiki/Standard_scale
p603
aVhttp://www.wikihow.com/Become-a-High-Level-on-RuneScape
p604
aVhttp://www.youtube.com/playlist?list=ALBTKoXRg38BBo4dxq1oZjelXWxZG3J8TV
p605
aVhttp://getpocket.com/blog/2012/11/now-live-in-google-play-a-faster-more-responsive-pocket-for-android/
p606
aVhttp://www.opendns.com/business-solutions/premium-dns/benefits
p607
aVhttp://hints.macworld.com/article.php?story=20091207221026406
p608
aVhttp://www.officialwindowsmagazine.com/guides/windows-7/speed-up-browsing-with-a-faster-dns-server/
p609
aVhttp://www.practicallynetworked.com/howto/third_party_dns_servers_howto.htm
p610
aVhttp://joandkevin.com/shop/spinning-turning-i-turned-you-twice-dont-make-me-turn-you-again/
p611
aVhttp://www.bergmann.dk/en/96998-Turning
p612
aVhttp://www.folkways.si.edu/TrackDetails.aspx?itemid=28069
p613
aVhttp://www.nserc-crsng.gc.ca/Professors-Professeurs/RPP-PP/I2I-INNOV_eng.asp
p614
aVhttp://www.youtube.com/watch?v=bGzHl0u9EsI
p615
aVhttp://www.youtube.com/watch?v=5NFUz2bdCmA
p616
aVhttp://caamedia.org/jainternment/
p617
aVhttp://www.jasgc.org/
p618
aVhttp://www.japanindiana.org/
p619
aVhttp://sharethis.com/
p620
aVhttp://www.youtube.com/watch?v=99QDBLX9JQI
p621
aVhttp://bornthiswayfoundation.org/
p622
aVhttp://www.labnol.org/gadgets/ipod/capture-screenshot-images-iphone-ipod/3876/
p623
aVhttp://www.theverge.com/2012/8/30/3280809/kindle-paperwhite-screen-images
p624
aVhttp://office.microsoft.com/en-us/onenote-help/capture-and-insert-a-screen-image-HP001115265.aspx
p625
aVhttp://qponabq.com/screen-images/
p626
aVhttp://www.reverse-phone-reference.com/505-344
p627
aVhttp://www.freephonenumberfinder.com/new+mexico/area-code-505/albuquerque/505.344.xxxx
p628
aVhttp://www.usingenglish.com/
p629
aVhttp://english.farsnews.com/
p630
aVhttp://www.ncte.org/
p631
aVhttp://www.digitaldialects.com/Spanish/Animals_simp_audio.htm
p632
aVhttp://en.wikipedia.org/wiki/!Kung_language
p633
aVhttp://www.reverbnation.com/smoothdialects
p634
aVhttp://vision.middlebury.edu/~schar/papers/evalcosts-pami08.pdf
p635
aVhttp://www.flickr.com/creativecommons/
p636
aVhttp://www.photoshopcafe.com/tutorials/blend/blend.html
p637
aVhttp://www.youtube.com/watch?v=FQDrv0hOiAQ
p638
aVhttp://cleantechnica.com/2012/02/07/masdar-city-to-be-complete-by-2025/
p639
aVhttp://www.gutenberg.org/ebooks/3600
p640
aVhttp://www.nba.com/celtics/video/1-1-leandro-barbosa
p641
aVhttp://en.wikipedia.org/wiki/Same-sex_marriage_in_Maine
p642
aVhttp://www.bbc.co.uk/radio1/
p643
aVhttp://news.nationalpost.com/2012/11/13/former-snc-lavalin-exec-dismissed-to-humiliate-him-publicly-in-order-to-please-new-libyan-regime-lawsuit/
p644
aVhttp://dealnews.com/pages/rss.html
p645
aVhttp://www.merriam-webster.com/spanish/public
p646
aVhttp://bible.cc/1_corinthians/10-32.htm
p647
aVhttp://www.totalimmersion.net/store/home-page/triathlon-swimming-made-easy-the-total-immersion-way-for-anyone-to-master-open-water-swimming.html
p648
aVhttp://wordpress.org/support/topic/how-to-allow-anyone-to-write-posts-on-my-blog
p649
aVhttps://en.bitcoin.it/wiki/Browser-based_wallet
p650
aVhttp://www.engadget.com/2012/10/04/google-wallet-reaches-the-web-reminds-most-of-us-that-it-exists/
p651
aVhttp://www.ideo.com/work/virtual-wallet-interactive-banking-experience/
p652
aVhttp://support.google.com/googleplay/bin/answer.py?hl=en&answer=1250236
p653
aVhttp://www.match.com/magazine/article/13084/Do-You-Fall-For-Unavailable-Guys/
p654
aVhttp://www.lensenergy.com/archives/2012/04/youtubes-this-video-is-current.html
p655
aVhttps://real.custhelp.com/app/answers/list/page/0
p656
aVhttp://www.facebook.com/realplayer/posts/10151178763211827
p657
aVhttp://www.xmarks.com/site/real.custhelp.com/app/home-player
p658
aVhttp://www.washingtonpost.com/world/national-security/david-petraeus-resigns-as-cia-director/2012/11/09/636d204e-2aa8-11e2-bab2-eda299503684_story.html
p659
aVhttp://adventure.nationalgeographic.com/adventure/adventurers-of-the-year/2013/vote/
p660
aVhttp://www.ncregister.com/blog/matthew-warner/heres-the-lesson-from-the-election-folks
p661
aVhttp://www.youtube.com/watch?v=zomOHwr5k-U
p662
aVhttp://www.youtube.com/watch?v=NDAYriSyLD8
p663
aVhttp://www.amazon.com/Dragon-Ball-GT-Season-One/dp/B001DRF83S
p664
aVhttp://css-tricks.com/forums/discussion/18531/custom-selects/p1
p665
aVhttp://stackoverflow.com/questions/11476484/jquery-mobile-1-1-1-custom-select-menu-placeholder-text-not-visible
p666
aVhttp://www.guildquality.com/partnerships/southern-living-custom-builder-program/
p667
aVhttp://www.ecolo.org/documents/documents_in_english/Life-cycle-analysis-PSI-05.pdf
p668
aVhttp://www.epa.gov/compliance/data/systems/
p669
aVhttp://www.precisiontimingsystems.com/results.htm
p670
aVhttp://www.safetec.net/products-services/environmental-reporting/tri-form-r/
p671
aVhttp://www.frc.org.uk/Our-Work/Codes-Standards/Actuarial-Policy/Technical-Actuarial-Standards/TAS-R-Reporting-Actuarial-Information.aspx
p672
aVhttp://www.admiralenv.com/static.asp?path=2852
p673
aVhttp://www.airinfonow.org/html/ed_co.html
p674
aVhttp://www.freewebspace.net/forums/showthread.php?2240475-Why-is-.co-so-expensive
p675
aVhttp://www.co-opnetwork.org/
p676
aVhttp://sports.yahoo.com/news/former-seahawks-te-jerramy-stevens-221827963--nfl.html
p677
aVhttp://townhall.com/tipsheet/guybenson/2012/11/06/former_gop_official_alleges_fraud_i_was_told_id_already_voted_but_i_hadnt
p678
aVhttp://www.hcm.uni-bonn.de/research/former-research-areas/former-research-area-d/
p679
aVhttp://wobm.com/an-amazing-story-of-survival-from-toms-river-audio/
p680
aVhttp://www.rottentomatoes.com/m/magic_mike/
p681
aVhttp://innovationinmilwaukee.com/
p682
aVhttp://revelmob.com/blog/must-have-application-anyone-feeling-particularly-passionate-about-their-iphone-has-been-launch
p683
aVhttp://www.healio.com/orthopedics/biologics/news/print/orthopedics-today/%7B42efbd3d-2580-4169-b566-0fc12fd0d5e6%7D/researchers-feeling-challenged-by-federal-regulations-for-off-label-device-applications
p684
aVhttp://jobssearchengine.net/Discussion/Other/Question-Do-you-feel-stupid-feeling-applications-and-not-getting-a-job-77304.html
p685
aVhttp://wps.prenhall.com/esm_giancoli_physicsppa_6/
p686
aVhttp://citeseerx.ist.psu.edu/viewdoc/download?doi=10.1.1.217.71&rep=rep1&type=pdf
p687
aVhttp://www.youtube.com/watch?v=q8ZP23QsRd0
p688
aVhttp://www.searchengineshowdown.com/others/archive.shtml
p689
aVhttps://www.dokuwiki.org/caching
p690
aVhttps://github.com/huacnlee/rails-settings-cached
p691
aVhttp://memebase.cheezburger.com/thisisphotobomb
p692
aVhttp://www.youtube.com/watch?v=99QDBLX9JQI
p693
aVhttp://thismodernworld.com/
p694
aVhttp://encyclopedia2.thefreedictionary.com/ndash
p695
aVhttp://www.getprice.com.au/Seiko-ER6700-Electronic-Concise-Oxford-Dictionary-Thesaurus-Encyclopedia-ER-6700-Gpnc_375--67213918.htm
p696
aVhttp://www.answers.com/topic/ramesses-2
p697
aVhttp://news.yahoo.com/lipa-restoration-nearly-done-no-power-84-000-162348516--finance.html
p698
aVhttp://www.donetr.com/
p699
aVhttp://api.jquery.com/deferred.done/
p700
aVhttp://alphadesigner.com/mapping-stereotypes/
p701
aVhttp://www.myspace.com/andypearsonsongs/photos/12427049
p702
aVhttp://googleblog.blogspot.com/2012/11/let-indoor-google-maps-be-your-guide.html
p703
aVhttp://lossprevention.videoalarmhomesmallbusinesssecuritysystembuy.info/posts/child+caught+shoplifting.html
p704
aVhttp://www.extrade.net/www-beetlethumbs-com.html
p705
aVhttp://www.sitevaluecalculator.com/rsaquo-page-1.html
p706
aVhttp://medicaldetoxifications.info/s/Guess-Banana-Shoe
p707
aVhttp://www.webstatsdomain.com/domains/rsaquo.net/
p708
aVhttp://www.jelks.nu/XML/ASCIIchart.html
p709
aVhttp://www.hhs.gov/news/
p710
aVhttp://www.latex-project.org/site-news.html
p711
aVhttp://en.wikipedia.org/wiki/News_Corporation
p712
aVhttp://en.wikipedia.org/wiki/More_(command)
p713
aVhttp://more.mel.org/
p714
aVhttp://more.etisalat.ae/
p715
aVhttp://www.amazon.com/Making-World-Douglas-Wood/dp/1416985964
p716
aVhttp://schedule.sxsw.com/2012/events/event_IAP100167
p717
aVhttp://www.youtube.com/watch?v=Ubqc7_MnBeE
p718
aVhttp://www.aapa.org/your_pa_career/becoming_a_pa.aspx
p719
aVhttp://www.pbs.org/becomingamerican/
p720
aVhttp://www.ncarb.org/becoming-an-architect.aspx
p721
aVhttp://www.library.unlv.edu/arch/rsrce/webresources/
p722
aVhttp://www.architecture2030.org/2030_challenge/the_2030_challenge
p723
aVhttp://thecreatorsproject.com/creators/graft-architects
p724
aVhttp://www.laureatelearning.com/customer-service/techsupport/?plat=win&type=0&prog=7&id=96
p725
aVhttp://www.laureatelearning.com/customer-service/techsupport/?plat=win&type=2&prog=88&id=138
p726
aVhttp://www.inbox.com/rl/te31_sr-1/256-Color-For-Computer.html?rlh=1
p727
aVhttp://c2.com/cgi/wiki?PrematureOptimization
p728
aVhttp://cpanel.net/hosting-providers/vps-optimized/
p729
aVhttp://en.wikipedia.org/wiki/Search_engine_optimization
p730
aVhttp://www.asktog.com/columns/085BrowseVsSearch.html
p731
aVhttp://www.ams.org/mathscinet/
p732
aVhttp://en.wikipedia.org/wiki/Search_engine_marketing
p733
aVhttp://www.includeacharity.com/
p734
aVhttp://help.yahoo.com/l/us/yahoo/privacy/communicate/privacy-02.html
p735
aVhttp://www.emergencymgmt.com/disaster/Partnering-With-Animal-Welfare-Groups.html
p736
aVhttp://www.youtube.com/watch?v=9c3C1PTHfWc
p737
aVhttp://steamcommunity.com/groups/shittybeardz
p738
aVhttp://www.dcwg.org/
p739
aVhttp://soundcloud.com/brandito-dj/re-mix-miz-ojz-lloran-por-ti
p740
aVhttp://www.youtube.com/watch?v=yoAKZJG95T0
p741
aVhttp://www.youtube.com/watch?v=8F2O18cBxWk
p742
aVhttp://www.psychologytoday.com/basics/decision-making
p743
aVhttp://www.etsy.com/listing/76413197/make-today-ridiculously-amazing-8x10
p744
aVhttp://www.creativebug.com/
p745
aVhttp://www.youtube.com/watch?v=irC3NuIKDm4
p746
aVhttp://www.shortsales101.com/basics.htm
p747
aVhttp://www.writing-world.com/basics/types.shtml
p748
aVhttp://www.cbc.ca/news/world/story/2012/11/12/david-petraeus-cia-affair-reputation.html
p749
aVhttp://nymag.com/daily/sports/
p750
aVhttp://www.cbc.ca/news/politics/story/2012/11/13/pol-flaherty-fiscal-update-fall-economic-statement.html
p751
aVhttp://www.sos.state.oh.us/sos/pollinglocation.aspx?page=361
p752
aVhttp://httpd.apache.org/docs/current/sections.html
p753
aVhttp://apps.ams.usda.gov/FarmersMarkets/
p754
aVhttp://rac.com.au/Finance/Car-loans.aspx
p755
aVhttp://www.psfinance.co.uk/
p756
aVhttp://en.wikipedia.org/wiki/Personal_finance
p757
aVhttp://www.sciencedirect.com/science/journal/01918869
p758
aVhttp://www.sciencedirect.com/science/journal/01497189
p759
aVhttp://www.sciencedirect.com/science/journal/10075704/18/1
p760
aVhttp://www.amazon.com/Maisto-Rock-Crawler-Colors-Vary/dp/B003ML36HI
p761
aVhttp://www.serenamaisto.com/
p762
aVhttp://www.maisto.com/index.php?option=com_wrapper&view=wrapper&Itemid=97
p763
aVhttp://www.ralphiemay.com/
p764
aVhttp://en.wikipedia.org/wiki/Theresa_May
p765
aVhttps://twitter.com/ElizabethMay
p766
aVhttp://www.telerik.com/help/silverlight/radmaskedinput-howto-enter-positive-values.html
p767
aVhttp://contests.about.com/od/sweepstakeslistings/a/oneentrysweeps.htm
p768
aVhttp://social.technet.microsoft.com/Forums/en-US/sharepointgenerallegacy/thread/4688b6ff-83b4-4935-adb8-da01675368b9/
p769
aVhttp://www.cato-at-liberty.org/this-only-applies-to-big-business/
p770
aVhttp://en.wikipedia.org/wiki/Michelle_Dubois
p771
aVhttp://www.youtube.com/watch?v=H-CW2ovWg2Y
p772
aVhttp://www.reviewedonline.co.uk/music/2012/0812/2808/sebastopol-hello-all-stations-this-is-zero-cd-album-review/sebastopol-hello-all-stations-this-is-zero-cd-album-review.htm
p773
aVhttp://rnli.org/NewsCentre/Pages/Kent-claims-one-of-the-coasts-busiest-RNLI-lifeboat-stations-this-summer.aspx
p774
aVhttp://www.choc.org/pressroom/index.cfm?id=P00296&nid=648
p775
aVhttp://www.distancesfrom.com/directions-from-CAMP-to-MNGL-Mega-CNG-gas-stationpimpri-chinchwad/DirectionHistory/205726.aspx
p776
aVhttp://www.jobalertsindia.com/articles/mngl-various-posts-recruitment-2012-1759.html
p777
aVhttp://www.imagekind.com/MemberProfile.aspx?MID=d8cb397f-f55b-42e0-85ad-c81506ebe8f0
p778
aVhttps://support.google.com/earth/bin/answer.py?hl=en&answer=148081
p779
aVhttp://www.avis.com/car-rental/location/loclanding.ac
p780
aVhttp://twitter.com/search-advanced
p781
aVhttp://www-01.ibm.com/support/docview.wss?uid=swg1IC64439
p782
aVhttp://www-01.ibm.com/support/docview.wss?uid=swg1PK72623
p783
aVhttp://www-01.ibm.com/support/docview.wss?uid=swg1PM47786
p784
aVhttp://www.mcm.org/
p785
aVhttp://www.kimbellart.org/MuseumInfo/Museum-Information.aspx
p786
aVhttp://www.youtube.com/watch?v=EB4DQo_2IfE
p787
aVhttps://itunes.apple.com/us/app/ihandy-level-free/id299852753?mt=8
p788
aVhttp://logging.apache.org/log4j/1.2/apidocs/org/apache/log4j/Level.html
p789
aVhttp://en.wiktionary.org/wiki/level
p790
aVhttp://www.nme.com/nme-video/enter-shikari---call-me-maybe/1700707214001
p791
aVhttp://www.casefoundation.org/blog/dogooder-nonprofit-video-contest-enter-today
p792
aVhttp://www.business-standard.com/india/news/reliance-entertainment-to-enter-video-market-in-us-canada/178881/on
p793
aVhttp://en.wikipedia.org/wiki/International_Wrestling_League
p794
aVhttp://www.litci.org/en/
p795
aVhttp://www.iwlindia.co.in/index-1.html
p796
aVhttps://developers.google.com/+/plugins/+1button/
p797
aVhttp://amanita-design.net/samorost-1/
p798
aVhttp://plusonemusic.net/
p799
aVhttp://www.nzpost.co.nz/receiving-mail/counter-delivery
p800
aVhttp://www.wolframalpha.com/widgets/view.jsp?id=d533faf48284a41791a2281fb9cfd385
p801
aVhttp://sst-intl.com/products-page/counters-timers/lab-diff-counter-2-places/
p802
aVhttp://www.art-is-fun.com/how-to-paint-a-mural.html
p803
aVhttp://www.foodservicewarehouse.com/restaurant-equipment-supply-marketing-articles/understanding-restaurant-equipment-and-supplies/c27077.aspx
p804
aVhttp://www.medtronicdiabetes.com/
p805
aVhttp://www.aapainmanage.org/
p806
aVhttp://www.reg.msu.edu/academicprograms/ProgramDetail.asp?Program=5205
p807
aVhttp://www.cognizant.com/InsightsWhitepapers/A-Holistic-Approach-to-Business.pdf
p808
aVhttps://www.cognizantcommunication.com/component/content/article/53/522-vole-20-nos-11-12-2011-1
p809
aVhttps://www.cognizantcommunication.com/journal-titles/cell-transplantation
p810
aVhttps://www.cognizantcommunication.com/component/content/article/53/524-vol-21-n-1-2012-1
p811
aVhttp://isitchristmas.com/
p812
aVhttp://www.youtube.com/watch?v=Pwe-pA6TaZk
p813
aVhttp://www.guardian.co.uk/commentisfree/uk-edition
p814
aVhttp://zmu.co.in/webdesign.aspx
p815
aVhttp://www.zoneminder.com/wiki/index.php/Logitech_Webcam_Pro_9000
p816
aVhttp://english.zmc.edu.cn/About_ZMC.htm
p817
aVhttp://www.sec.gov/Archives/edgar/data/1131312/000114420412019557/0001144204-12-019557.txt
p818
aVhttp://mobius.missouri.edu:2082/search~S0?/aWillee%2C+A.+W./awillee+a+w/-3%2C-1%2C0%2CB/marc&FF=awilleke+klaus+author&1%2C1%2C
p819
aVhttp://omanembassy.net/index.php?56743n0v1
p820
aVhttp://www.coolcomponents.co.uk/catalog/rfid-reader-p-106.html
p821
aVhttp://www.rfidshop.net/index.php?main_page=index&cPath=24
p822
aVhttp://latimesblogs.latimes.com/lanow/2012/05/reader-photos-southern-california-moments-day-125.html
p823
aVhttp://www.iapjournals.ac.cn/aas/ch/reader/view_abstract.aspx?file_no=930105
p824
aVhttp://www.facebook.com/pages/Prequency/387851283474
p825
aVhttp://www.alldatasheet.com/datasheet-pdf/pdf/108429/HITACHI/2SB874.html
p826
aVhttp://english.pravda.ru/
p827
aVhttp://english.cntv.cn/
p828
aVhttp://mondediplo.com/
p829
aVhttp://www.guardian.co.uk/commentisfree/uk-edition
p830
aVhttp://en.wikipedia.org/wiki/.is
p831
aVhttp://www.facebook.com/HKarl
p832
aVhttp://www.nhs.uk/servicedirectories/
p833
aVhttp://www.house.gov/representatives/find/
p834
aVhttp://www.irs.gov/Charities-&-Non-Profits/Search-for-Charities
p835
aVhttp://photo.net/learn/
p836
aVhttp://www.iis.net/learn
p837
aVhttp://learn.googleapps.com/
p838
aVhttp://www.zoogue.com/news/4/Is-this-cached.html
p839
aVhttp://www.google.vu/support/forum/p/Webmasters/thread?tid=02164d9c1b6a6e98&hl=en
p840
aVhttp://support.microsoft.com/kb/817445
p841
aVhttp://en.wikipedia.org/wiki/.ve
p842
aVhttps://twitter.com/Ve
p843
aVhttp://www.veinteractive.com/
p844
aVhttp://www.guardian.co.uk/books/2012/nov/12/salman-rushdie-john-le-carre
p845
aVhttp://www.huffingtonpost.com/2012/11/08/party-schools-that-pay-20_n_2092702.html
p846
aVhttp://twitter.com/WatchTheDuck/status/261914145425866752
p847
aVhttp://en.wikipedia.org/wiki/Green_building
p848
aVhttp://www.greens.org/
p849
aVhttp://pubs.rsc.org/en/Journals/Journal/GC
p850
aVhttp://www.1010global.org/
p851
aVhttp://www.gamegecko.com/
p852
aVhttp://techcrunch.com/2012/11/14/heres-a-blackberry-10-device-next-to-an-iphone-5/
p853
aVhttp://japanese.about.com/library/blqow38.htm
p854
aVhttp://www.youtube.com/watch?v=xT0faeeg6wM
p855
aVhttp://flights.expedia.com/flights-from-san-diego-to-new-orleans-san-to-msy/
p856
aVhttps://www.privacy.vic.gov.au/privacy/web2.nsf/pages/frequently-asked-questions-general-public
p857
aVhttp://abcnews.go.com/International/wireStory/american-diamond-official-urged-resign-17708059
p858
aVhttp://www.aec.gov.au/faqs/Electoral_Roll.htm
p859
aVhttp://www.live.com/
p860
aVhttp://www.imdb.com/search/
p861
aVhttp://www.seek.com.au/
p862
aVhttp://www.sjstartup.co.uk/products/sage-instant-range-products.html
p863
aVhttp://www.cafepress.com/ultrageek/4127317
p864
aVhttp://www.kerberos-productions.com/forums/viewtopic.php?f=52&t=25283&sid=a91736e7149d6d2a88730effccc7d919
p865
aVhttps://community.sagecrm.com/user_community/f/84/t/2546.aspx
p866
aVhttp://community.act.com/t5/Sage-ACT/Can-t-I-undo-a-phone-number-change/td-p/172541
p867
aVhttp://www.textndata.com/forums/way-undo-printer-selection-report-67460.html
p868
aVhttp://www.canberratimes.com.au/act-news/qbn-mayoral-fight-heats-up-20120811-241ol.html
p869
aVhttp://streema.com/radios/QBN_2QBN
p870
aVhttp://www.truelocal.com.au/business/qbn-paper-shop/queanbeyan
p871
aVhttp://www.queanbeyanage.com.au/story/948611/qbns-crowded-playing-fields/?cs=1655
p872
aVhttp://www.canberratimes.com.au/act-news/qbn-faces-a-big-cleanup-bill-as-river-drops-20120304-1uber.html
p873
aVhttp://streema.com/radios/QBN_2QBN
p874
aVhttp://www.facebook.com/pages/zxv/106486019388306
p875
aVhttp://www.urbandictionary.com/define.php?term=Zxv
p876
aVhttp://www.facebook.com/pages/ZXV-Photos/274347012663708
p877
aVhttp://www.youtube.com/watch?v=ZLCh3Kkyx8o
p878
aVhttp://global.rakuten.com/en/store/ana-den/item/1546546/
p879
aVhttp://www.urbandictionary.com/define.php?term=Zxv
p880
atp881
.