(S':+into'
p0
(lp1
Vhttp://www.space.dtu.dk/english.aspx
p2
aVhttp://www.d-t-u.com/
p3
aVhttp://www.solardecathlon.dk/
p4
aVhttp://imgfave.com/view/2538809
p5
aVhttp://ebookbrowse.com/a050-10800000-pdf-d343643442
p6
aVhttp://www.macyoung.co.za/showpropertySM182ZZ00005167.cp
p7
aVhttp://www.gale-edit.co.jp/
p8
aVhttp://www.e-edit.co.uk/
p9
aVhttp://www.churchedit.co.uk/website-tips/
p10
aVhttp://minnesota.cbslocal.com/2012/11/09/jordan-football-from-1-7-to-state-tournament/
p11
aVhttp://expressionengine.com/user_guide/installation/upgrade_from_1.x.html
p12
aVhttp://pmindia.nic.in/press-details.php?nodeid=1537
p13
aVhttp://www.prosportsexperience.com/giants/speed-days-at-giants-camp/
p14
aVhttp://variationsonnormal.com/speed-creating/
p15
aVhttp://www.plus.net/support/broadband/speed_guide/speed_basics.shtml
p16
aVhttp://www.gamedesign.jp/flash/speed/speed.html
p17
aVhttp://www.dslreports.com/stest
p18
aVhttp://www.speedmuseum.org/
p19
aVhttp://openlearn.open.ac.uk/mod/oucontent/view.php?id=398848&section=1.6
p20
aVhttp://omni.isr.ist.utl.pt/~sm3/biomedica/systems-biology/Networks.pdf
p21
aVhttp://www.chemguide.co.uk/analysis/masspec/mplus.html
p22
aVhttp://ocaoimh.ie/wp-super-cache/
p23
aVhttp://help.arcgis.com/en/arcgisdesktop/10.0/pdf/cached-map-service-tutorial.pdf
p24
aVhttp://www.makeuseof.com/tag/browser-cache-makeuseof-explains/
p25
aVhttps://angel.co/help/regulations
p26
aVhttp://amandahess.tumblr.com/post/15788360249/publicly-we-view-porn-as-a-danger-to-itself-and
p27
aVhttp://www.squidoo.com/praying-in-public
p28
aVhttp://www.timeticker.com/
p29
aVhttp://wwp.greenwichmeantime.com/
p30
aVhttp://www.nytimes.com/
p31
aVhttps://twitter.com/TO
p32
aVhttp://www.railstotrails.org/
p33
aVhttp://dict.leo.org/ende?lp=ende&p=thMx..&search=to
p34
aVhttp://www.haibane.info/2008/03/16/google-42/
p35
aVhttp://knowyourmeme.com/memes/the-answer-to-life-the-universe-and-everything-42
p36
aVhttp://www.cbs42.com/content/special/story/The-Google-Mistrial/tOJwr4wY70G7y0R5Iccuuw.cspx
p37
aVhttp://scbusinessweek.com/
p38
aVhttp://services.parliament.uk/calendar/
p39
aVhttp://www.glasgowforbusinessweek.com/
p40
aVhttp://techtips.salon.com/change-iphone-one-itunes-another-5001.html
p41
aVhttp://forum.wordreference.com/showthread.php?t=1690
p42
aVhttp://www.amazon.com/Pour-Me-Another-Opinionated-ebook/dp/B005XNJ0RI
p43
aVhttp://pubs.acs.org/journal/jpcafh
p44
aVhttp://www.theaa.com/route-planner/index.jsp
p45
aVhttp://www.youtube.com/watch?v=EkSOOiMDGiY
p46
aVhttp://www.youtube.com/watch?v=T2a1JeXESPs
p47
aVhttp://www.digitalspy.co.uk/showbiz/i413122-8/celebrity-pictures-090612-150612-justin-bieber.html
p48
aVhttp://www.flickr.com/photos/levisredtab/6323746337/
p49
aVhttp://www.glamour.com/entertainment/blogs/obsessed/2012/11/oh-no-selena-gomez-and-justin.html
p50
aVhttp://www.bizjournals.com/chicago/news/2012/11/02/bmo-harris-bank-reaches-out-to-justin.html?page=all
p51
aVhttp://www.addictinginfo.org/2012/09/08/paul-ryan-and-a-republican-paradox/1344701207418-cached/
p52
aVhttp://www.confer.co.nz/amn-5/
p53
aVhttp://ceramics.org/34th-international-conference-exposition-on-advanced-ceramics-composites
p54
aVhttp://www.aim2012.org/
p55
aVhttp://www.scamwarners.com/forum/viewtopic.php?f=13&p=133568
p56
aVhttp://en.wikipedia.org/wiki/Captain_(United_States)
p57
aVhttp://www.fearofflying.com/
p58
aVhttp://www.mtishows.com/show_detail.asp?showid=000002
p59
aVhttp://www.aau.ac.ae/
p60
aVhttp://www.uaeu.ac.ae/
p61
aVhttp://www.eclipse.org/forums/index.php/t/390859/
p62
aVhttps://bugzilla.mozilla.org/show_bug.cgi?id=722234
p63
aVhttp://www.myfitnesspal.com/topics/show/795613-spaghetti-squash-help-please?page=1
p64
aVhttp://relativity.phys.lsu.edu/ilqgs/
p65
aVhttp://www.dep.state.fl.us/waste/categories/hazardous/pages/lqg.htm
p66
aVhttp://www.airliners.net/search/photo.search?regsearch=OH-LQG
p67
aVhttp://allthingsd.com/
p68
aVhttp://www.youtube.com/watch?v=dJJm2v9QYSc
p69
aVhttp://www.last.fm/music/D
p70
aVhttp://codex.wordpress.org/Customizing_the_Read_More
p71
aVhttp://www.youtube.com/watch?v=9fK3EK-85Hk
p72
aVhttp://thesaurus.com/browse/more
p73
aVhttp://www.xmarks.com/site/md.sermo.com/medical/welcome
p74
aVhttp://www.starpulse.com/Movies/Welcome_to_the_Dollhouse-V135762/Similar_Movies/
p75
aVhttp://boxofficemojo.com/movies/?page=similar&id=roscoejenkins.htm
p76
aVhttp://www.webmd.com/diet/features/master-your-metabolism
p77
aVhttp://getlisted.org/resources/improve-your-reputation.aspx
p78
aVhttp://www.yelp.com/
p79
aVhttp://en.wikipedia.org/wiki/STOBAR
p80
aVhttp://www.infowars.com/aircraft-carrier-enterprise-sets-off-on-final-journey-direction-iran/
p81
aVhttp://lifehacker.com/5909270/get-out-of-verizons-and-other-carriers-new-30-upgrade-fee
p82
aVhttp://www.ball-valves.com.tw/products/index.php?id=12
p83
aVhttp://www.portdiscovery.org/educators/programs
p84
aVhttp://ptshipwrights.wordpress.com/tag/outer-stem/
p85
aVhttp://www.gwct.org.uk/documents/conserving_the_grey_partridge.pdf
p86
aVhttp://www.civilservant.org.uk/northcotetrevelyan.pdf
p87
aVhttp://www.sitra.org.uk/fileadmin/sitra_user/TEMP/A_Provider_s_Guide_to_Procurement_for_website.pdf
p88
aVhttp://btemptd.co.uk/
p89
aVhttp://www.patient.co.uk/health/vitamin-d-deficiency-including-osteomalacia-and-rickets
p90
aVhttp://www.garage-d.com/
p91
aVhttp://allthingsd.com/category/conferences/
p92
aVhttp://en.wikipedia.org/wiki/Vitamin_D
p93
aVhttp://www.dlisted.com/
p94
aVhttp://mallmallmall.com/component/relatedvideos/&:video:G9Tg8F0JBxA
p95
aVhttp://www.keybeatonline.com/forums/archive/index.php/t-2549.html
p96
aVhttp://www.mallmallmall.com/component/relatedvideos/&:video:SjlM8xGLSZM
p97
aVhttp://anothercountry-morwyn.blogspot.com/2012/10/you-think-id-learn.html
p98
aVhttp://www.washingtonpost.com/ac2/wp-dyn?pagename=article&node=&contentId=A48167-2001Oct24&notFound=true
p99
aVhttp://www.dlearn.com/buynow.htm
p100
aVhttp://www.nbc.com/smash/games/finish-the-lyric/59811fc2e779331f8acbd4bce49cb4cd
p101
aVhttp://www.crossway.org/books/finish-the-mission-tpb/
p102
aVhttp://www.guardian.co.uk/world/2012/sep/07/barack-obama-pleads-voters-finish
p103
aVhttp://www.musiciansfriend.com/
p104
aVhttp://www.felaonbroadway.com/
p105
aVhttp://www.funnyordie.com/videos/414fa4b226/the-wire-the-musical-with-michael-kenneth-williams
p106
aVhttp://www.cnbc.com/id/33831099
p107
aVhttp://www.google.ca/
p108
aVhttp://www.nationsonline.org/oneworld/map/google_map_Dili.htm
p109
aVhttp://designyoutrust.com/
p110
aVhttp://www.dailymail.co.uk/home/you/index.html
p111
aVhttp://www.wdyl.com/
p112
aVhttp://www.youtube.com/user/give
p113
aVhttp://www.gktw.org/
p114
aVhttps://www.justgive.org/
p115
aVhttp://www.ehow.com/video_4409367_give-thai-next-shoulder-massage.html
p116
aVhttp://thenextweb.com/google/2012/10/02/google-announces-plans-to-give-refine-back-to-the-community-will-put-code-up-on-github/
p117
aVhttp://mycharitywater.org/birthdays
p118
aVhttp://www.parade.com/dictators/index.html
p119
aVhttp://www.youtube.com/user/alltime10s
p120
aVhttp://www.bbc.co.uk/news/magazine-20033471
p121
aVhttp://www.whitehouse.gov/healthreform/relief-for-americans-and-businesses
p122
aVhttp://fantasyfootball.mirror.co.uk/
p123
aVhttp://www.medicare.gov/Pubs/pdf/10050.pdf
p124
aVhttp://www.facebook.com/pages/%C5%BD-unikat/214237543736
p125
aVhttp://cvc.nic.in/hindi/matter/pri.pdf
p126
aVhttp://www.discogs.com/artist/Jean-Philippe+Rameau?anv=%C5%BD.+F.+Ramo&filter_anv=1
p127
aVhttp://timesofindia.indiatimes.com/videos/sports/golf/Jeev-Milkha-Singh-wins-Scottish-Open-in-play-off/videoshow/14982303.cms
p128
aVhttp://www.flickr.com/photos/ingridgott/page2/
p129
aVhttp://technology.xin.msn.com/microsoft/windows8/sony-shows-off-windows-8-tablets-pcs-3
p130
aVhttp://www.youtube.com/watch?v=gy5iT4aarKg
p131
aVhttp://www.dwavesys.com/
p132
aVhttp://allthingsd.com/
p133
aVhttp://www.restaurantarenberg.be/InleidingEN.htm
p134
aVhttp://en.memory-alpha.org/wiki/Lee_Arenberg
p135
aVhttp://www.tripadvisor.co.uk/Hotel_Review-g188644-d228082-Reviews-NH_Grand_Place_Arenberg-Brussels.html
p136
aVhttp://wpcarey.asu.edu/directory/people/profile.cfm?person=1027934
p137
aVhttp://www.gwumc.edu/smhs/facultydirectory/index.cfm?empName=%20Naomi%20Luban&employeeID=900
p138
aVhttp://www.thetake.org/index.cfm?page_name=the_zanon_struggle
p139
aVhttp://projects.crustal.ucsb.edu/understanding/history/history1.html
p140
aVhttp://www.history.com/this-day-in-history/april-fools-tradition-popularized
p141
aVhttp://en.wikipedia.org/wiki/History_of_K-1
p142
aVhttp://www.spill.com/Audio/AudioPost.aspx?audioId=246
p143
aVhttp://www.afoolsjourney.com/2012/10/23/metaphysical/dixie/feedback-on-the-chakra-workbook/
p144
aVhttp://www.amazon.co.uk/Only-Fools-Horses-Complete-Collection/dp/B000IZK52K
p145
aVhttp://www.safesearch.co.nz/
p146
aVhttp://blog.primaryt.co.uk/2010/11/14/safe-search-upgrades/
p147
aVhttp://www.safesearch.co.nz/privacy.php
p148
aVhttp://wiki.postgresql.org/wiki/Lock_Monitoring
p149
aVhttp://search.cpan.org/~dharris/DB_File-Lock-0.05/Lock.pm
p150
aVhttp://www.magellans.com/signal-search-tsa-lock
p151
aVhttp://www.ntchosting.com/url-redirection.html
p152
aVhttp://support.google.com/blogger/bin/answer.py?hl=en&answer=2472689
p153
aVhttp://en.wikipedia.org/wiki/Category:Wikipedia_soft_redirected_project_pages
p154
aVhttp://www.similarsites.com/site/blogspot.com
p155
aVhttp://dulcecandy.com/
p156
aVhttp://www.mysaline.com/xn/detail/873760:BlogPost:325923?xg_source=activity
p157
aVhttp://www.whitehouse.gov/blog
p158
aVhttp://en.wikipedia.org/wiki/Glossary_of_blogging
p159
aVhttp://codex.wordpress.org/Introduction_to_Blogging
p160
aVhttp://4wheeldrive.about.com/od/coursestraining/
p161
aVhttp://www.learnquebec.ca/en/content/curriculum/mst/liftoff/
p162
aVhttp://www.telegraph.co.uk/travel/snowandski/4697642/Off-piste-skiing-the-best-places-to-learn.html
p163
aVhttp://www.mayoclinic.com/health/learn-from-the-past/MY01805
p164
aVhttp://answers.yahoo.com/question/index?qid=20071028073725AA7Rrrn
p165
aVhttp://www.facebook.com/pages/Past-is-past-Learn-from-it-but-never-go-back-to-it-although-its-HARD/103439506355743
p166
aVhttp://www.youtube.com/watch?v=99QDBLX9JQI
p167
aVhttp://www.thisamericanlife.org/radio-archives
p168
aVhttp://www.history.com/this-day-in-history
p169
aVhttp://en.wikipedia.org/wiki/American_football_positions
p170
aVhttp://www.online-basketball-drills.com/basketballplays
p171
aVhttp://forums.offensivecombat.com/discussion/773/fix-the-ferret-allready-1111
p172
aVhttp://en.kioskea.net/faq/1509-forcing-internet-explorer-7-to-open-pages-in-a-new-tab
p173
aVhttp://api.drupal.org/api/drupal/modules!filter!filter.pages.inc/function/theme_filter_tips/7
p174
aVhttp://blog.getpostrocket.com/2012/06/7-easy-ways-to-increase-your-pages-edgerank/
p175
aVhttp://tools.seobook.com/
p176
aVhttp://www.w3.org/QA/Tools/
p177
aVhttp://tools.pingdom.com/
p178
aVhttps://itunes.apple.com/us/album/the-of-tape-vol.-2/id506428288
p179
aVhttp://www.youtube.com/watch?v=mk48xRzuNvA
p180
aVhttp://www.foe.co.uk/
p181
aVhttp://www.adobe.com/products/acrobat/adobepdf.html
p182
aVhttp://www.pdftoword.com/
p183
aVhttp://www.wordle.net/faq
p184
aVhttp://www.washingtonpost.com/wp-dyn/content/article/2009/06/23/AR2009062303262.html
p185
aVhttp://econpapers.repec.org/RePEc:iso:wpaper:0159
p186
aVhttp://www.corriere.it/International/english/articoli/2012/10/24/finmeccanica.shtml
p187
aVhttp://newsok.com/life/food
p188
aVhttp://www.usaweekend.com/
p189
aVhttp://canadaam.ctvnews.ca/recipes
p190
aVhttp://en.wikipedia.org/wiki/Past_tense
p191
aVhttp://www.pages-igbp.org/
p192
aVhttp://www.brotherspast.com/
p193
aVhttp://en.wikipedia.org/wiki/Isochrony
p194
aVhttp://user.it.uu.se/~yi/ps-files/chapter.ps
p195
aVhttp://science.nasa.gov/missions/timed/
p196
aVhttp://www.animelyrics.com/anime/fmalchemist/undo.htm
p197
aVhttp://vimdoc.sourceforge.net/htmldoc/undo.html
p198
aVhttp://git-scm.com/book/en/Git-Basics-Undoing-Things
p199
aVhttp://www.yelp.com/biz/rain-nightclub-studio-city
p200
aVhttp://svn.portal.aau.dk/uservalidator/trunk/dictionaries/words-da-1.7.17.ispell
p201
aVhttp://www.archive.org/stream/elementarygerma00woodgoog/elementarygerma00woodgoog_djvu.txt
p202
aVhttp://www.fvbumpire.com/
p203
aVhttp://acronyms.thefreedictionary.com/FVB
p204
aVhttp://www.youtube.com/watch?v=S-fVB-eHGVI
p205
aVhttp://soundcloud.com/vollzugsbeamte/fvb-outtakes-04-doktor-des
p206
aVhttp://jetphotos.net/showphotos.php?regsearch=SP-FVB
p207
aVhttp://www.britishmuseum.org/explore/highlights/highlight_objects/pd/m/master_fvb,_the_annunciation.aspx
p208
aVhttp://cool.conservation-us.org/coolaic/sg/emg/library/pdf/vitale/2005-11-vitale-storage_image_files_long.pdf
p209
aVhttp://flickeflu.com/photos/48307767@N00/interesting
p210
aVhttp://www.medimaging.net/radiography/articles/294741213/most_emergency_department_patients_receiving_ct_scans_of_the_abdomen_pelvis_are_clinically_complex.html
p211
aVhttps://developers.google.com/speed/tools
p212
aVhttp://www.google.com/webmasters/tools/richsnippets
p213
aVhttp://goog-perftools.sourceforge.net/
p214
aVhttp://en.wikipedia.org/wiki/You_(Time_Person_of_the_Year)
p215
aVhttp://www.youtube.com/my_videos_upload
p216
aVhttp://en.wikipedia.org/wiki/You
p217
aVhttp://www.tripadvisor.com.au/Restaurant_Review-g293916-d1829222-Reviews-Wine_Connection_Bistro-Bangkok.html
p218
aVhttp://www.bangkokpost.com/food/features/280332/it-s-rainin-wine
p219
aVhttps://www.vineyardconnection.co.za/
p220
aVhttp://www.google.com/policies/privacy/tools/
p221
aVhttp://www.amazon.com/Power-Tools-and-Hand-Tools/b?ie=UTF8&node=328182011
p222
aVhttp://www.tools.com/
p223
aVhttp://www.socialmediaexaminer.com/12-social-media-tools-recommended-by-the-pros/
p224
aVhttp://www.familyhandyman.com/DIY-Tools---Tips/DIY-Tools/DIY-Tips-on-Tools/best-tools-of-the-pros-the-secret-weapons/View-All
p225
aVhttp://www.amazon.com/Start-NO-Negotiating-Tools-that/dp/0609608002
p226
aVhttp://iopscience.iop.org/1367-2630/14/6/063018/article
p227
aVhttp://www.oracle.com/technetwork/java/javase/6u14-137039.html
p228
aVhttp://wwwnc.cdc.gov/eid/r/content/14/6/909.htm
p229
aVhttp://ec.europa.eu/budget/figures/2012/2012_en.cfm
p230
aVhttp://www.nytimes.com/2012/10/03/us/pennsylvania-judge-delays-implementation-of-voter-id-law.html
p231
aVhttp://www.mom.gov.sg/employment-practices/employment-rights-conditions/leave-and-holiday/Pages/PublicHolidays2012.aspx
p232
aVhttp://www.myspace.com/celebrationcelebration
p233
aVhttp://www.panache.com/aoc/aoc_series.html
p234
aVhttp://www.vevo.com/watch/the-game/celebration/USUV71201447
p235
aVhttp://www.eham.net/reviews/
p236
aVhttp://www.nature.com/reviews/
p237
aVhttp://www.spin.com/reviews
p238
aVhttp://www.wilton.com/cakes/making-cakes/leveling-cakes.cfm
p239
aVhttp://www.facebook.com/LevelTheCity
p240
aVhttp://www.amazon.com/Street-Level-The-Beatnuts/dp/B000003BXE
p241
aVhttp://virtualchase.justia.com/content/do-you-culture-pearls-0
p242
aVhttp://www.kellyocg.com/Knowledge/KellyOCG_Blog/Are_you_culture_branding_/
p243
aVhttp://education.nationalgeographic.com/archive/xpeditions/lessons/04/g68/picture.html
p244
aVhttp://www.youtube.com/watch?v=f4BiCOIWNC8
p245
aVhttp://afe.easia.columbia.edu/song/
p246
aVhttp://song-life.com/
p247
aVhttp://www.zerotothree.org/
p248
aVhttp://en.wikipedia.org/wiki/TO
p249
aVhttp://www.sos.ca.gov/elections/elections_vr.htm
p250
aVhttp://everymothercounts.org/
p251
aVhttp://www.reuters.com/article/2012/11/12/us-fitness-pedometers-idUSBRE8AB0CZ20121112
p252
aVhttp://www.everywoman.com/
p253
aVhttp://www.thebudgetingtool.com/2012/09/03/august-2012-budget-roundup-573-11-or-a-0-27/
p254
aVhttp://www.chegg.com/homework-help/questions-and-answers/027-kg-particle-moves-xy-plane-according-x-t-19-3-t-2-t3-y-t-17-9-t-9-t2-x-y-meters-t-seco-q1511014
p255
aVhttp://bend.craigslist.org/reb/3370622466.html
p256
aVhttp://www.bjsydl.com/Powercable/html/?77.html
p257
aVhttp://www.youtube.com/watch?v=k1_9KJGGZyY
p258
aVhttp://hongyanwire.en.alibaba.com/product/539646364-213119466/power_cable_ZR_YJV_from_reliable_partner.html
p259
aVhttp://www.youtube.com/watch?v=xU24fJ4NQxo
p260
aVhttp://www.hiddenvancouver.ca/
p261
aVhttp://en.wikipedia.org/wiki/Hidden_track
p262
aVhttp://oyqboyq.blogspot.com/
p263
aVhttp://www.airport-data.com/aircraft/CF-OYQ.html
p264
aVhttp://www.youtube.com/watch?v=qmGVYki-oyQ
p265
aVhttp://www.alldatasheet.com/datasheet-pdf/pdf/265520/SIRENZA/SZM-2166Z.html
p266
aVhttp://www.ebay.com/itm/MICROWAVE-OVEN-DOOR-MICRO-SWITCH-SZM-V16-FA-63-DR1-1-/390298087181
p267
aVhttp://www.moddb.com/mods/szm-cop
p268
aVhttp://stocktwits.com/symbol/UCO
p269
aVhttp://www.uco.edu/em/index.asp
p270
aVhttp://www.ucohockey.com/
p271
aVhttp://www.thefreedictionary.com/behalf
p272
aVhttp://answers.yahoo.com/question/index?qid=20080327072433AAdWRpo
p273
aVhttp://community.bt.com/t5/BT-Infinity/A-rant-on-my-Dad-s-behalf-And-I-feel-foolish-for-recommending-bt/td-p/579201/page/2
p274
aVhttp://www.snapon.com/
p275
aVhttp://www.eyeonearth.org/
p276
aVhttp://front.moveon.org/
p277
aVhttp://www.tesco.com/direct/books/
p278
aVhttp://books.shop.ebay.com/
p279
aVhttp://www.waterstones.com/
p280
aVhttp://www.commentarymagazine.com/2012/05/15/obama-drops-his-name-into-presidential-biographies/
p281
aVhttp://www.amazon.com/Object-Worlds-Ancient-Egypt-Materializing/dp/B006J42TMS
p282
aVhttp://books.google.com/books/about/Object_Worlds_in_Ancient_Egypt.html?id=TyHiwe2yePIC
p283
aVhttp://www.azleg.state.az.us/arizonarevisedstatutes.asp?title=39
p284
aVhttp://articles.latimes.com/2012/sep/27/opinion/la-ed-prop39-20120927
p285
aVhttp://ballotpedia.org/wiki/index.php/California_Proposition_39,_Income_Tax_Increase_for_Multistate_Businesses_(2012)
p286
aVhttp://www.bigfinish.com/releases/v/bang-bang-a-boom-205
p287
aVhttp://www.youtube.com/watch?v=crfeL_7XifE
p288
aVhttp://commons.wikimedia.org/wiki/File:Brooks_Range_(39)_from_aeroplane.jpg
p289
aVhttp://www.bigissue.com/features/page/38/0
p290
aVhttp://www.zdnet.com/windows-phone-8-screenshot-gallery-covers-many-new-features_p39-7000006499/
p291
aVhttp://www.empireonline.com/features/50-disney-films/default.asp?film=39
p292
aVhttp://fitelson.org/few/
p293
aVhttp://www.imdb.com/title/tt1721494/
p294
aVhttp://www.nytimes.com/2012/09/27/technology/personaltech/for-the-absent-minded-a-few-forget-me-nots.html
p295
aVhttp://www.youtube.com/watch?v=h1-a-1jmON4
p296
aVhttp://www.youtube.com/watch?v=x2RJN9a_jdM
p297
aVhttp://en.wikipedia.org/wiki/Couldn%27t_Last_a_Moment
p298
aVhttp://www.wisc.edu/
p299
aVhttp://www.nybooks.com/
p300
aVhttp://uwaterloo.ca/
p301
aVhttp://www.asiatefl.org/journal/journal1.html
p302
aVhttp://www.plosone.org/article/info%3Adoi%2F10.1371%2Fjournal.pone.0001683
p303
aVhttp://www.sciencedirect.com/science/journal/0022328X
p304
aVhttp://xkcd.com/374/
p305
aVhttp://pubs.acs.org/journal/jpcafh
p306
aVhttp://moritzlaw.osu.edu/students/groups/is/
p307
aVhttp://www.ehl.at/
p308
aVhttp://www.investsmart.com.au/shares/asx/EMECO-HOLDINGS-LIMITED-EHL.asp
p309
aVhttp://www.youtube.com/watch?v=heAG3gkcEDA
p310
aVhttp://git-scm.com/book/en/Git-Basics-Undoing-Things
p311
aVhttp://vimdoc.sourceforge.net/htmldoc/undo.html
p312
aVhttp://office.microsoft.com/en-us/word-help/undo-redo-or-repeat-an-action-HP001216394.aspx
p313
aVhttps://github.com/mapbox/tilemill/issues/1804
p314
aVhttp://email.about.com/od/gmailtips/qt/How_to_Undo_Undelete_Unarchive_Unlabel_and_More_in_Gmail.htm
p315
aVhttp://www.eudict.com/?lang=engrom&word=to%20undo,%20to%20let%20down
p316
aVhttp://www.gcflearnfree.org/gmail
p317
aVhttp://support.google.com/mail/?hl=en
p318
aVhttps://plus.google.com/+Gmail
p319
aVhttp://www.infopathdev.com/forums/p/22807/78956.aspx
p320
aVhttp://go4answers.webhost4life.com/Example/mfc-activexcontrols-custom-method-11202.aspx
p321
aVhttp://www.supportourribbons.com/custom-ribbon-magnet-sticker/24583/THE+NATION+OF+ISLAM+++IS+NEITHER!
p322
aVhttps://discussions.apple.com/thread/4124589?start=0&tstart=0
p323
aVhttp://canoncity.kaango.com/browse/other/help-wanted-full-time/1066/?fq=state_province%3AColorado&distance=30&latlong=38.440640%2C-105.238140&where=Canon+City%2C+Colorado&search=&sort=date&allmarket=0
p324
aVhttp://parkrecord.kaango.com/browse/other/help-wanted-full-time/1066/?fq=adtype%3A%22Sale+Ad%22&distance=50&latlong=40.643140%2C-111.493970&where=Park+City%2C+Utah&search=&sort=date&allmarket=0
p325
aVhttp://blog.programmableweb.com/2011/09/15/google-plus-api-for-public-data-released/
p326
aVhttp://forum.xda-developers.com/showthread.php?t=1808361
p327
aVhttp://www.ptua.org.au/2011/08/23/timetable-data/
p328
aVhttp://mashable.com/2012/06/22/google-shareholders-approve-stock-split/
p329
aVhttp://www.csmonitor.com/USA/Latest-News-Wires/2012/0412/Google-to-split-stock-to-preserve-control
p330
aVhttp://www.huffingtonpost.com/bill-george/googles-stock-split-irks-_b_1435782.html
p331
aVhttp://en.wikipedia.org/wiki/Publicly_owned_treatment_works
p332
aVhttp://www.innovation.gov.au/Research/Pages/FocusingAustraliasPubliclyFundedResearch.aspx
p333
aVhttp://www.esf.org/activities/mo-fora/evaluation-of-publicly-funded-research.html
p334
aVhttp://pinterest.com/dianawright/pics/
p335
aVhttp://www.doroja.com/smartdic.aspx?decode=1&url=aHR0cHM6Ly90d2l0cGljLmNvbS8yYTF0czAvZnVsbA==B64Coded!
p336
aVhttp://computer.howstuffworks.com/internet/tips/twitpic3.htm
p337
aVhttp://www.math.hmc.edu/funfacts/ffiles/20013.3.shtml
p338
aVhttp://www.onlinetefl.com/tefl-chalkboard/
p339
aVhttp://www.isep.org/students/intl_students/sites_open_intl_applications.asp
p340
aVhttp://wiki.answers.com/Q/How_do_you_use_verbatim_in_a_sentence
p341
aVhttp://en.wikibooks.org/wiki/LaTeX/Paragraph_Formatting
p342
aVhttp://www.york.ac.uk/inst/spru/pubs/pdf/verbquotresearch.pdf
p343
aVhttp://www.amazon.com/Verbatim-97593-Wireless-Desktop-Optical/dp/B00544X30G
p344
aVhttp://www.amazon.com/Verbatim-94934-LightScribe-Recordable-30-Disc/dp/B0007M0VWS
p345
aVhttp://www.amazon.com/Verbatim-96911-Blu-ray-Double-Layer-Recordable/dp/B002WCOZUU
p346
aVhttp://www.amazon.com/Sway-Irresistible-Pull-Irrational-Behavior/dp/0385530609
p347
aVhttp://vimeo.com/oritoor
p348
aVhttp://joby.com/gorillamobile/ori-2/
p349
aVhttp://www.barebones.com/
p350
aVhttp://panic.com/
p351
aVhttp://www.grapessoftware.com/
p352
aVhttp://www.jagranjosh.com/articles/current-affairs-magazine-august-2012-1347535358-1
p353
aVhttp://www.global.tdk.com/news_center/publications/power_electronics_world/pdf/aaa60603.pdf
p354
aVhttp://www.usinfo.pl/zoom/files/current.pdf
p355
aVhttp://www.hair-space.co.uk/
p356
aVhttp://www.hairspacedurango.com/
p357
aVhttp://www.yellowpages.com.au/nsw/dapto/lee-harry-hair-space-13682460-listing.html
p358
aVhttps://www.donotcall.gov/
p359
aVhttp://www.notdoppler.com/
p360
aVhttp://en.wikipedia.org/wiki/Not!
p361
aVhttp://tvtropes.org/pmwiki/pmwiki.php/Main/TookALevelInDumbass
p362
aVhttp://www.cdc.gov/nceh/lead/ACCLPP/blood_lead_levels.htm
p363
aVhttp://developer.android.com/guide/topics/manifest/uses-sdk-element.html
p364
aVhttps://www.washington.edu/
p365
aVhttp://www.umn.edu/
p366
aVhttp://www.lwv.org/
p367
aVhttp://www.innovation.gov.au/Research/Pages/FocusingAustraliasPubliclyFundedResearch.aspx
p368
aVhttp://www.esf.org/activities/mo-fora/evaluation-of-publicly-funded-research.html
p369
aVhttp://www.reit.com/IndividualInvestors/PubliclyTradedREITDirectory.aspx
p370
aVhttp://www.health.gov.bc.ca/pharmacare/pdf/PFVGuide.pdf
p371
aVhttp://www.erawatch-network.eu/reports/sewp161.pdf
p372
aVhttp://www.sfaa.gov.hk/eng/schemes/tsfs.htm
p373
aVhttp://www.youtube.com/watch?v=niftfRnM87s
p374
aVhttp://www.nsf.gov/funding/
p375
aVhttp://fundedresearch.cancer.gov/
p376
aVhttp://www.bbb.org/baton-rouge/business-reviews/roofing-contractors/ojw-in-prairieville-la-90015844
p377
aVhttp://www.colorado.gov/cs/Satellite/Revenue-MV/RMV/1187080331197
p378
aVhttp://www.bbm.org.uk/Kerwin.htm
p379
aVhttp://www.vetstreet.com/hills-science-diet-puppy-savory-stew-with-beef---vegetables-canine
p380
aVhttp://www.nydailynews.com/entertainment/tv-movies/silverstone-back-life-heckerling-vamps-article-1.1198977
p381
aVhttp://muse.jhu.edu/journals/jae/summary/v043/43.3.davies.html
p382
aVhttp://www.wlvt.org/
p383
aVhttp://voterguide.sos.ca.gov/propositions/39/
p384
aVhttps://twitter.com/search?q=%2339
p385
aVhttp://www.northernireland.gov.uk/index/media-centre/news-departments/news-del/news-releases-archive-del-december-2011/news-del-141211-steps-to-work.htm
p386
aVhttp://www.youtube.com/watch?v=gxEmUTZ8QHw
p387
aVhttp://www.health.qld.gov.au/abios/steps/documents/newsletters/issue21_mar_2011.pdf
p388
aVhttp://www.toyota.com/corollamiku/
p389
aVhttp://www.caranddriver.com/news/2011-toyota-corolla-debuts-toyota-corolla-news
p390
aVhttp://autos.aol.com/cars-Toyota-Camry-2011/overview/
p391
aVhttp://quote.morningstar.ca/QuickTakes/ETF/etf_ca.aspx?t=XEG&region=CAN&culture=en-CA
p392
aVhttp://www.stockhouse.com/companies/overview/t.xeg
p393
aVhttp://streema.com/radios/La_Ranchera_XEG
p394
aVhttp://www.imdb.com/title/tt1003026/
p395
aVhttp://vimeo.com/39217409
p396
aVhttp://www.imdb.com/title/tt2401754/
p397
aVhttp://www.maxwellmarine.com/downloader.php?i=139
p398
aVhttp://www.facebook.com/vwcphotography
p399
aVhttp://www.vwcbuilders.com/
p400
aVhttp://www5.scholastic.co.uk/zone/book_39clues.htm
p401
aVhttp://books.google.com/books/about/The_39_Clues_Book_9_Storm_Warning.html?id=hYMW6d5fPX0C
p402
aVhttp://www.youtube.com/watch?v=VlXVgQd35Nw
p403
aVhttp://en.wikipedia.org/wiki/Lists_of_writers
p404
aVhttp://ideas.repec.org/i/e.html
p405
aVhttp://www.kidsreads.com/authors/authors.asp
p406
aVhttp://www.startribune.com/sports/wolves/179046781.html
p407
aVhttp://www.apple.com/quicktime/
p408
aVhttp://www.in.com/music/
p409
aVhttp://www.cleanenergyjobsact.com/
p410
aVhttp://www.biblegateway.com/passage/?search=Psalm+39&version=NIV
p411
aVhttp://www.trimet.org/schedules/r039.htm
p412
aVhttp://aws.typepad.com/aws/2012/04/amazon-cloudsearch-start-searching-in-one-hour.html
p413
aVhttp://www.amazon.co.uk/Search-Engine-Optimization-Hour-Day/dp/0470902590
p414
aVhttp://it-jobs.fins.com/Articles/SBB0001424052970204464404577114500519453464/The-Two-Hour-Job-Search
p415
aVhttp://www.triacafe.com/
p416
aVhttp://www.twotempleplace.co.uk/loc.html
p417
aVhttp://www.babycakesnyc.com/locations.html
p418
aVhttp://espn.go.com/nfl/story/_/id/8626611/ben-roethlisberger-pittsburgh-steelers-qb-a-source-says
p419
aVhttp://www.nwf.org/beoutthere
p420
aVhttp://www.vib.be/
p421
aVhttp://www.flickr.com/services/api/explore/?method=flickr.photos.search
p422
aVhttp://searchenginewatch.com/article/2202235/Bing-Adds-Facebook-Photo-Search
p423
aVhttp://www.fotosearch.com/
p424
aVhttp://www.diamondleague-newyork.com/
p425
aVhttp://www.usaswimming.org/DesktopDefault.aspx?TabId=1420&Alias=rainbow&Lang=en
p426
aVhttp://en.wikipedia.org/wiki/Prix_M%C3%A9dicis
p427
aVhttp://www.computerhope.com/issues/ch000516.htm
p428
aVhttp://www.goodreads.com/book/show/9007584-millennial-glory-volume-i---hidden-light
p429
aVhttp://community.skype.com/t5/Windows/International-SMS-that-I-hidden-just-after-I-send-them-are-going/td-p/1111900
p430
aVhttp://more.etisalat.ae/
p431
aVhttp://news.yahoo.com/
p432
aVhttp://www.bbc.co.uk/news/business-20288077
p433
aVftp://ftp.fao.org/agl/agll/docs/cwfto11.pdf
p434
aVhttp://www.youtube.com/watch?v=A85oLE-h-H4
p435
aVhttp://www.voanews.com/content/new-yorkers-say-good-riddance-to-2011-136402413/174985.html
p436
aVhttp://www.wizseoservices.com/googles-august-september-updates-panda-knowledge-graph-page-quality-safesearch/
p437
aVhttp://www.cyberwebsearch.com/cgi-bin/search.cgi?cat=&q=&t=&c=&b=&s=&search=advanced&source=
p438
aVhttp://cs.benjaminsommer.com/safe-search-replace/wp/
p439
aVhttp://www.esf.org/activities/mo-fora/evaluation-of-publicly-funded-research.html
p440
aVhttp://www.buzzfeed.com/virginmobilelive/20-publicly-shamed-animal-twitpics-5l87
p441
aVhttp://www.arc.gov.au/about_arc/national_ip.htm
p442
aVhttp://www.jstor.org/stable/421376
p443
aVhttp://www.law.indiana.edu/ilj/volumes/v74/no3/choudhry.pdf
p444
aVhttp://effectivehealthcare.ahrq.gov/index.cfm/search-for-guides-reviews-and-reports/
p445
aVhttp://www.search-document.com/pdf/4/givens-genealogy.html
p446
aVhttp://www.law.indiana.edu/ilj/volumes/v74/no3/choudhry.pdf
p447
aVhttp://www.pdfs.name/comparative-legal-studies
p448
aVhttp://houdiniesq.com/
p449
aVhttp://soundcloud.com/esq-1
p450
aVhttp://www.imdb.com/title/tt0033686/
p451
aVhttp://www.chosen300.org/
p452
aVhttp://www.cbsnews.com/8301-202_162-57550096/xi-jinping-chosen-to-become-chinas-leader/
p453
aVhttp://www.flickr.com/photos/wisely-chosen/
p454
aVhttp://www.facebook.com/googletranslate
p455
aVhttp://support.google.com/drive/bin/answer.py?hl=en&answer=187189
p456
aVhttp://support.google.com/chrome/bin/answer.py?hl=en&answer=173424
p457
aVhttp://ideas.repec.org/a/ags/arerjl/59249.html
p458
aVhttp://www.independent.co.uk/news/business/news/bp-and-rosneft-reveal-details-of-17bn-russian-oil-deal-8220658.html
p459
aVhttp://articles.timesofindia.indiatimes.com/2012-11-08/bhubaneswar/34993628_1_ward-member-shg-members-panchayat-office
p460
aVhttp://muse.jhu.edu/journals/rst/summary/v032/32.2.winn.html
p461
aVhttp://www.facebook.com/NICON.colleges/notes
p462
aVhttp://ideas.repec.org/p/unp/wpaper/201209.html
p463
aVhttp://www.formspring.me/account/settings
p464
aVhttps://www.linkedin.com/secure/settings?trk=hb_acc
p465
aVhttp://docs.moodle.org/23/en/Course_settings
p466
aVhttp://wingsbirds.com/tours/costa-rica-march/narrative/
p467
aVhttp://wingsbirds.com/tours/jamaica/narrative/
p468
aVhttp://www.nifc.gov/safety/mann_gulch/documents/Narative_1_Introduction.pdf
p469
aVhttp://nymag.com/thecut/2012/08/shopping-with-shoshs-virginity-taker-from-girls.html
p470
aVhttp://www.ladybirdprints.com/category/6144/picture-books-and-early-learning/shopping-with-mother
p471
aVhttp://store.barefootbooks.com/shopping-with-dad-1.html
p472
aVhttp://www.glf.it/
p473
aVhttp://www.glfr.co.uk/
p474
aVhttp://www.glf.co.uk/
p475
aVhttp://www.webopedia.com/TERM/A/application.html
p476
aVhttp://en.wikipedia.org/wiki/Application_software
p477
aVhttp://www.networkworld.com/topics/applications.html
p478
aVhttp://change.washington.edu/
p479
aVhttp://www.funbrain.com/cashreg/
p480
aVhttp://www.youtube.com/watch?v=ZooxI3YOfYM
p481
aVhttp://weeklyad.target.com/
p482
aVhttp://www.youtube.com/watch?v=5zWB4dLYChM
p483
aVhttp://featuresblogs.chicagotribune.com/theskyline/2012/01/ads-on-chicago-skyscrapers-are-a-sad-sign-of-the-times-advertising-clutter-has-no-place-on-chicagos-.html
p484
aVhttp://www.tbytahoe.org/
p485
aVhttp://www.teerachaiphaisal.co.th/pdf/tend/alarm/tp131.pdf
p486
aVhttp://www.semissourian.com/topic/tby
p487
aVhttp://www.undos.com/
p488
aVhttp://www.youtube.com/watch?v=21LWQkZqPhI
p489
aVhttp://docs.gimp.org/en/gimp-concepts-undo.html
p490
aVhttp://euw.leagueoflegends.com/board/showthread.php?p=7130666
p491
aVhttp://www.cccu.org/professional_development/resource_library/Search?dt=Report
p492
aVhttps://todoist.com/Support/showQuestion/237/
p493
aVhttp://www.tripadvisor.ca/ShowUserReviews-g187212-d507536-r115876201-HotelF1_Avignon_centre_Courtine_Gare_TGV-Avignon_Vaucluse_Provence.html
p494
aVhttp://www.tripadvisor.co.uk/ShowUserReviews-g33364-d857539-r121765078-The_Firehouse_BBQ-Colorado_Springs_El_Paso_County_Colorado.html
p495
aVhttp://www.tripadvisor.in/ShowUserReviews-g616028-d735794-r116878641-Classic_Residency-Haridwar_Uttarakhand.html
p496
aVhttp://www.youtube.com/watch?v=9PqslpZ3qus
p497
aVhttp://answercenter.ebay.com/question/Miscellaneous/Cancel-Bid-Placed/900312926
p498
aVhttp://www.urbandictionary.com/define.php?term=Grammar%20Nazi
p499
aVhttp://therecorporation.com/
p500
aVhttp://www.imdb.com/title/tt0078841/
p501
aVhttp://finance.yahoo.com/blogs/breakout/love-hate-money-made-off-obamacare-191029613.html
p502
aVhttp://www.vsresearch.com.au/
p503
aVhttp://www.linkedin.com/company/g-&-s-research-inc.
p504
aVhttp://www.bbb.org/wisconsin/business-reviews/auto-body-repair-and-painting/s-s-research-inc-in-mukwonago-wi-27000174/
p505
aVhttp://learn.linkedin.com/groups/
p506
aVhttp://groups.google.com/group/hosted-setup/topics
p507
aVhttp://www.thesession.org/discussions/display/28812/comments
p508
aVhttp://people.duke.edu/~skc9/tamilclass/PDF/movies.pdf
p509
aVhttp://www.facebook.com/pages/M-e-l-o-d-%C3%AC-%C3%AC-/140019062715633
p510
aVhttp://www.facebook.com/pages/Vivi-la-V-%C3%AC-T-a-/114055485323497
p511
aVhttp://www.insidetime.org/info-regimes2.asp?nameofprison=HMP-YOI_WARREN_HILL
p512
aVhttp://www.youtube.com/watch?v=3GFJVmyevnk
p513
aVhttp://uk.sodexo.com/uken/solutions/on-site/justice/peterborough.asp
p514
aVhttp://www.amazon.com/HTML-CSS-Design-Build-Websites/dp/1118008189
p515
aVhttp://www.quora.com/Amazon-EC2/What-are-the-largest-consumer-sites-that-run-on-EC2
p516
aVhttp://www.nbcnews.com/technology/technolog/amazon-web-services-outage-takes-down-netflix-other-sites-1C6611522
p517
aVhttp://www.amazon.co.uk/Motorola-RAZR-Sim-Free-Smartphone-Black/dp/B005PTZT6Q
p518
aVhttp://www.amazon.co.uk/Pavel-I-Dan-Vyleta/dp/074759631X
p519
aVhttp://realbusiness.co.uk/news/how-i-got-a-blank-book-to-the-top-of-the-amazon-charts
p520
aVhttp://www.eatsmartmovemorenc.com/FamiliesESMM/Texts/Shopping_List_2up.pdf
p521
aVhttp://www.yellowpages.com/page-az/shopping
p522
aVhttp://blog.templatemonster.com/2011/09/06/shopping-cart-page-designs/
p523
aVhttp://www.yellowpages.co.za/
p524
aVhttp://www.rootsweb.ancestry.com/~vagspc/pcgs.htm
p525
aVhttp://yellow.co.nz/
p526
aVhttp://clientsfromhell.net/
p527
aVhttp://en.wikipedia.org/wiki/You_(Time_Person_of_the_Year)
p528
aVhttp://travel.nytimes.com/2012/10/21/travel/halloween-tours-that-give-you-the-creeps.html
p529
aVhttp://www.hyltunfarm.com/
p530
aVhttp://www.ncbi.nlm.nih.gov/pubmed/8134117
p531
aVhttp://www.uscnk.com/directory/Hydroxylysine(Hyl)-0742.htm
p532
aVhttp://www.functionpoint.com/
p533
aVhttp://schools.roundrockisd.org/stonypoint/
p534
aVhttp://www1.pgcps.org/highpoint/
p535
aVhttp://www.utexas.edu/ogs/admissions/afterapp.html
p536
aVhttp://en.wikipedia.org/wiki/George_W._Bush
p537
aVhttp://www.imdb.com/title/tt0427944/
p538
aVhttp://spotfirecommunity.tibco.com/community/forums/t/4706.aspx
p539
aVhttp://drupal.org/node/1721312
p540
aVhttp://serverfault.com/questions/394951/free-cached-available-memory-on-linux
p541
aVhttp://lmgtfy.com/
p542
aVhttp://www.imdb.com/title/tt0088258/
p543
aVhttp://www.history.com/this-day-in-history
p544
aVhttp://www.mouser.com/ProductDetail/Apex-Tool-Group-Formerly-Cooper-Tools/XNT-4/?qs=06JvGjnVmMC3vW2OpAhNfg0gd4nT6qWS
p545
aVhttp://www.hotels.com/de1667668/hotels-near-xingtai-airport-xnt-xingtai-china/
p546
aVhttp://www.mouser.com/ProductDetail/Apex-Tool-Group-Formerly-Cooper-Tools/XNT-6/?qs=sGAEpiMZZMviS%252bFAV9K8IwzZx0dVUrVP
p547
aVhttp://support.mozilla.org/questions/933701
p548
aVhttp://productforums.google.com/d/topic/websearch/jmoO6HhVHpU
p549
aVhttp://www.kobps.lincs.sch.uk/media/google%20safe%20search.doc
p550
aVhttp://www.reuters.com/finance/stocks/overview?symbol=WFM.OQ
p551
aVhttp://www.wfm.hk/
p552
aVhttp://ca.finance.yahoo.com/q?s=WFM
p553
aVhttps://us.etrade.com/
p554
aVhttp://www.asx.com.au/
p555
aVhttp://www.moneycontrol.com/
p556
aVhttp://observer.guardian.co.uk/
p557
aVhttp://www.independent.co.uk/
p558
aVhttp://www.nature.org/
p559
aVhttp://www.news-press.com/
p560
aVhttp://news.individual.net/
p561
aVhttp://www.pbs.org/newshour/video/
p562
aVhttps://discussions.apple.com/thread/4049907?start=0&tstart=0
p563
aVhttp://www.anglofareast.com/bullion-accounts/gold-account/
p564
aVhttp://www.moneysavingexpert.com/savings/best-regular-savings-accounts
p565
aVhttps://www.chase.com/
p566
aVhttp://www.bankofireland.com/
p567
aVhttp://www.stgeorge.com.au/
p568
aVhttp://www.truelocal.com.au/business/appliance-tagging-services/moulden
p569
aVhttp://www.truelocal.com.au/business/joeyz-plumbing/concord
p570
aVhttp://www.simplyhired.ca/a/jobs/list/q-intervenant%2Fintervenante+des+services+%C3%A3+la+jeunesse+(offre+%23+6726706+)/l-oromocto,+nb
p571
aVhttp://www.lwv.org/
p572
aVhttp://www.ufl.edu/
p573
aVhttps://www.washington.edu/
p574
aVhttp://www.digitalcamerainfo.com/content/Sony-Alpha-NEX-6-First-Impressions-Review.htm
p575
aVhttp://ir.lib.uwo.ca/cgi/viewcontent.cgi?article=1041&context=cjsotl_rcacea
p576
aVhttp://en.wikipedia.org/wiki/Resident_Evil_6
p577
aVhttp://www.workplaceviolence911.com/category/1/5/48
p578
aVhttp://mortgagenewsclips.com/2010/11/17/mortgage-and-housing-related-0-mortgage-gnma-hmbs-fcs-in-ny-robo-5000-a-day-new-player-david-grais-on-securitization/
p579
aVhttp://thedatahub.org/dataset/bluk-bnb/related
p580
aVhttp://www.cl.cam.ac.uk/~mgk25/time/leap/
p581
aVhttp://www.youtube.com/watch?v=3FPxYDGfniM
p582
aVhttp://thirtysecondstomars.thisisthehive.net/blog/
p583
aVhttp://www.cisco.com/en/US/docs/ios/12_0s/feature/guide/fasthelo.html
p584
aVhttp://www.facebook.com/DLMcGarry/posts/478526045501180
p585
aVhttp://www.28dayslater.co.uk/forums/showthread.php/75654-Hello-and-do-you-know-what-these-are
p586
aVhttp://www.youtube.com/watch?v=xpQ-6B8guTQ
p587
aVhttp://pmindia.nic.in/
p588
aVhttp://www.epa.gov/region1/airquality/pm-how-monitored.html
p589
aVhttp://www.youtube.com/watch?v=6fbahS7VSFs
p590
aVhttp://dict.leo.org/ende?lp=ende&p=thMx..&search=to
p591
aVhttp://www.i-to-i.com/
p592
aVhttp://www.smh.com.au/digital-life/computers/review-apple-os-x-mountain-lion--the-good-the-awesome-the-coulddobetter-20120726-22sfz.html
p593
aVhttp://www.bhphotovideo.com/indepth/computers/hands-reviews/mac-os-x-108-mountain-lion-review
p594
aVhttp://www.airlinequality.com/Forum/lion.htm
p595
aVhttp://www.lionambassadors.com/
p596
aVhttp://www.canneslions.com/work/
p597
aVhttp://www.mynetball.co.nz/events-calendar/lion-foundation-netball-champs/2012/2012-lfnc-finals-week-draw-and-results.html
p598
aVhttp://en.wikipedia.org/wiki/File_talk:Swaziland_Boy_Scouts_Association_Lion_Scout.png
p599
aVhttp://www.lionsports.net/sports/2008/9/29/GEN_0929084301.aspx
p600
aVhttp://www.kunsengkeng.org/
p601
aVhttp://pockettactics.com/2012/10/31/battle-of-britain-strategy-title-the-few-is-scrambling-soon/
p602
aVhttp://us.battle.net/wow/en/forum/topic/6794829943
p603
aVhttp://www.healthgrades.com/physician/dr-tiffany-few-xlrl3
p604
aVhttp://www.studentbeans.com/worldweirdweb/a/wins/21-cats-who-are-worried-about-results-day2976.html
p605
aVhttp://www.edexcel.com/iwantto/Pages/dida-results.aspx
p606
aVhttp://bigthink.com/think-tank/how-to-speak-conservative-its-about-results-not-rights
p607
aVhttp://www.facebook.com/VFWFans
p608
aVhttp://www.texasvfw.org/
p609
aVhttp://www.vfwyouthgroup.org/
p610
aVhttp://www.fitnessusa.com/mens-fitness/results-you-can-expect/
p611
aVhttp://www.fitnessblender.com/v/article-detail/How-long-after-working-out-do-you-see-results-A-breakdown-by-goal/bq/
p612
aVhttp://support.google.com/websearch/bin/answer.py?hl=en&answer=2409854
p613
aVhttp://www.ucdmc.ucdavis.edu/CANCER/pedresource/pedres_docs/HowHelpChildGainWeight.pdf
p614
aVhttp://www.whattoexpect.com/pregnancy/eating-well/pregnancy-weight-gain.aspx
p615
aVhttp://www.wikihow.com/Gain-Muscle-Fast
p616
aVhttp://www.shape.com/fitness/body-mass-index-bmi-calculator
p617
aVhttp://www.webstatschecker.com/stats/keyword/bmi_calculator
p618
aVhttp://www.siteglimpse.com/bmi.at
p619
aVhttp://advanced-autosports.com/
p620
aVhttp://www.nmroads.com/
p621
aVhttp://www.watchguard.com/infocenter/editorial/38596.asp
p622
aVhttp://datavision.sourceforge.net/
p623
aVhttp://communities.rightnow.com/posts/4fa580578c
p624
aVhttp://alternativeto.net/software/sql-server-reporting-services-ssrs/
p625
aVhttp://php.net/manual/en/function.similar-text.php
p626
aVhttp://similardiversity.net/
p627
aVhttp://en.wikipedia.org/wiki/Matrix_similarity
p628
aVhttp://www.youtube.com/watch?v=j57IzkTFnT8
p629
aVhttp://www.thomaslfriedman.com/bookshelf/that-used-to-be-us
p630
aVhttp://www.youtube.com/watch?v=NY4xE9rAY8k
p631
aVhttp://mlb.mlb.com/mlb/official_info/about_mlb_com/
p632
aVhttp://en.wikipedia.org/wiki/Major_League_Baseball_Advanced_Media
p633
aVhttp://www.factortg.com/
p634
aVhttp://zone.ni.com/reference/en-XX/help/371361J-01/lvhowto/setting_undo/
p635
aVhttp://help.instructure.com/entries/20888416-add-undo-button-to-rich-text-editor
p636
aVhttp://www.chaossoftware.com/help%20files/intellect4/data-advanced_data_backup_explorer.html
p637
aVhttp://ec.europa.eu/trade/wider-agenda/development/generalised-system-of-preferences/
p638
aVhttp://www.ustr.gov/trade-topics/trade-development/preference-programs/generalized-system-preference-gsp
p639
aVhttp://www.nafjobs.org/preferences.aspx
p640
aVhttp://www.immigralaw.com/english/familypref.shtml
p641
aVhttp://www.webeyestore.com/Preference-Contacts-4-pack-p/2394.htm
p642
aVhttp://more1dstories.tumblr.com/post/29577709011/preference-4-harry-plays-call-or-delete-with-nick
p643
aVhttp://earth.jsc.nasa.gov/
p644
aVhttp://online.wsj.com/article/SB10000872396390444620104578008263334441352.html
p645
aVhttp://en.wikipedia.org/wiki/From_Hell
p646
aVhttp://www.bbc.co.uk/news/science-environment-20300100
p647
aVhttp://www.goodreads.com/quotes/38593-do-not-depend-on-the-hope-of-results-you-may
p648
aVhttp://www.thestar.com/living/health/article/1283425--canadian-developed-hiv-vaccine-shows-promising-results-no-adverse-effects-say-developers
p649
aVhttp://www.youtube.com/user/Craftycatsmeow
p650
aVhttp://www.youtube.com/watch?v=D14xYY599tA
p651
aVhttp://www.youtube.com/watch?v=T8M1M1NOTeY
p652
aVhttp://www.msgr.ca/msgr-7/Ash_Wednesday_QandA.htm
p653
aVhttp://www.youtube.com/watch?v=kNAtC3O29ac
p654
aVhttp://www.englishforums.com/English/NextWednesday/jmnnr/post.htm
p655
aVhttp://en.wikipedia.org/wiki/False_advertising
p656
aVhttp://www.saymedia.com/company-and-campaign-information
p657
aVhttp://memory.loc.gov:8081/ammem/browse/ListSome.php?category=Advertising
p658
aVhttp://www.hfb.pt/
p659
aVhttp://www.toolingu.com/definition-570320-36617-iso-hfb.html
p660
aVhttp://www.cbsr.ia.ac.cn/english/HFB%20Databases.asp
p661
aVhttp://www.forvo.com/word/%C3%A2/
p662
aVhttp://muse.jhu.edu/journals/modern_fiction_studies/v040/40.2.malin.pdf
p663
aVhttp://ideas.repec.org/a/usm/journl/aamjaf00401_87-118.html
p664
aVhttp://www.discogs.com/artist/Jean-Philippe+Rameau?anv=%C5%BD.+F.+Ramo&filter_anv=1
p665
aVhttp://www.discogs.com/artist/Jacques+Offenbach?anv=%C5%BD.+Ofenbachas&filter_anv=1
p666
aVhttp://www.facebook.com/pages/%C5%BD-unikat/214237543736
p667
aVhttp://www.facebook.com/pages/FGZ-Records/298587213507497
p668
aVhttp://tweetmysong.com/ak2b352
p669
aVhttp://www.youtube.com/watch?v=JSdGH4gEpJQ
p670
aVhttp://www.duckboy.com/index.php/custom-advertising-postscards.html
p671
aVhttp://www.williampoole.com/custom_advertising/
p672
aVhttp://www.flatworldcommunication.com/Design-web-and-consulting/Marketing-service/Forida-advertising-and-marketing/Medical-custom-advertising.html
p673
aVhttp://www.youtube.com/playlist?list=PL92A5BEAA9E1F8866
p674
aVhttp://thechive.com/2012/08/02/clever-advertisements-are-always-refreshing-to-see-23-photos/clever-advertising-1/
p675
aVhttp://www.youtube.com/watch?v=DUPU4h7R9rA
p676
aVhttp://www.sweetwater.com/store/detail/AD8IFC
p677
aVhttp://www.simplycvsshopping.com/2012/08/cvs-ad-scan-preview-for-week-of-8122012.html
p678
aVhttp://www.simplycvsshopping.com/2012/08/cvs-ad-scan-preview-for-week-of-8192012.html
p679
aVhttp://www.muslimphilosophy.com/ir/rushd.pdf
p680
aVhttp://www.bbc.co.uk/newyddion/19912006
p681
aVhttp://www.bbc.co.uk/news/business-20327870
p682
aVhttp://www.ij.org/?option=com_content&task=view&id=1728&Itemid=245
p683
aVhttp://www.youtube.com/watch?v=gEa5GQe0S_E
p684
aVhttp://www.corowise.com/ja/askexpert.html
p685
aVhttp://www.hafele.com/th/en/documents/HTH_Furniture_Fittings_Catalogue_2011-12-12.4.pdf
p686
aVhttp://www.eenadu.net/Specialpages/sukhibhava/Sukhibavainner.aspx?qry=h3-10519
p687
aVhttp://www.ktb.co.th/ktb/Download/economyresources/EconomyResourcesDownload_14026._%E0%B8%81%E0%B8%B2%E0%B8%A3%E0%B8%81%E0%B8%B3%E0%B8%AB%E0%B8%99%E0%B8%94%E0%B8%84%E0%B9%88%E0%B8%B2%E0%B9%81%E0%B8%A3%E0%B8%87%E0%B8%82%E0%B8%B1%E0%B9%89%E0%B8%99%E0%B8%95%E0%B9%88%E0%B8%B3%E0%B8%81%E0%B8%B1%E0%B8%9A%E0%B8%81%E0%B8%B2%E0%B8%A3%E0%B8%88%E0%B9%89%E0%B8%B2%E0%B8%87%E0%B8%87%E0%B8%B2%E0%B8%99.pdf
p688
aVhttp://www.michaelbreckerliverecordings.com/Transcriptions/Solo/Searching%20Finding%20Brecker%20Solo.pdf
p689
aVhttp://wumath.wustl.edu/files/math/paraTI83.pdf
p690
aVhttp://www.binatonetelecom.com/binaries/content/assets/binatone/products/android-products/ihomephone-2/ihomephone_2_qsg.pdf
p691
aVhttp://westandwiththe99percent.tumblr.com/
p692
aVhttp://www.templatemo.com/page/1
p693
aVhttp://www.1and1.com/
p694
aVhttp://www.engadget.com/2012/08/29/live-from-sony-s-2012-ifa-press-conference/
p695
aVhttp://www.polygon.com/gaming/2012/8/8/3228400/sony-gamescom-2012-press-conference-livestream
p696
aVhttp://www.joystiq.com/2012/09/19/live-from-sonys-tgs-2012-press-conference/
p697
aVhttp://www.oup.com/us/
p698
aVhttp://press.org/
p699
aVhttp://press.princeton.edu/
p700
aVhttp://mturkforum.com/showthread.php?2567-speechink-non-verbatim-hits-approval-time
p701
aVhttp://realtimecourtreporters.com/
p702
aVhttp://www.verbatim-europe.co.uk/en_1/binarydata_user-guide-en-pdf_13894.pdf
p703
aVhttp://doc.qt.digia.com/qt/sql-cachedtable.html
p704
aVhttps://support.xobni.com/entries/444707-what-is-cached-exchange-mode-and-why-do-i-need-it
p705
aVhttp://office.microsoft.com/en-us/outlook-help/download-public-folders-when-you-are-using-cached-exchange-mode-HP010356492.aspx
p706
aVhttp://www.sheknows.com/baby-names/browse/t
p707
aVhttp://www.momswhothink.com/baby-girl-names/baby-girl-names-t.html
p708
aVhttp://www.babyzone.com/baby-names/girl-names-that-start-with-t/
p709
aVhttp://www.zazzle.com/tia+mousepads
p710
aVhttp://christmas-gift-for-boyfriend-2012.info/tia-viagra.asp
p711
aVhttp://www.facebook.com/tiatamerashow
p712
aVhttp://www.amazon.com/Johnson-Tough-Pads-4-Count-Pack/dp/B001E96M26
p713
aVhttp://www.cpen.com/software/cpadhelp
p714
aVhttp://blog.padmapper.com/2012/06/25/help-replenish-landlord-listings-on-padmapper/
p715
aVhttp://www.gradpadlondon.com/live/wood-lane-studios/wood-lane-studios-shops/
p716
aVhttp://shopping.rediff.com/categories/computers-and-it-peripherals-computer-accessories-mouse-pads/cat-7641/
p717
aVhttp://www.tripadvisor.co.uk/ShowTopic-g34515-i19-k3729432-I_Pad_Shopping_in_Orlando-Orlando_Florida.html
p718
aVhttp://couponwinner.com/categorycoupons.aspx?cid=211
p719
aVhttp://www.abicana.com/shop10.htm
p720
aVhttp://www.bizwiz.com/bizwizshopper/beauty_com/anti_agingfacialmoisturizers/
p721
aVhttp://www.cdc.gov/
p722
aVhttp://www.cdt.org/
p723
aVhttp://en.wikipedia.org/wiki/Center_(basketball)
p724
aVhttp://www.theaa.com/route-planner/index.jsp
p725
aVhttp://www.youtube.com/watch?v=6P1vf_7DoLA
p726
aVhttp://www.youtube.com/watch?v=6B26asyGKDo
p727
aVhttp://www.familydaysout.com/kids-things-to-do-usa/boulder-city/nv/
p728
aVhttp://mycheats.1up.com/view/section/3171340/32026/the_legend_of_zelda_skyward_sword/wii
p729
aVhttp://www.renaissanceadventures.com/index.php/quests-a-programs/2011-06-08-05-37-42/boulder-program-calendar-sites-a-directions
p730
atp731
.