(S'week+Business'
p0
(lp1
Vhttp://www.space.dtu.dk/english.aspx
p2
aVhttp://www.d-t-u.com/
p3
aVhttp://www.solardecathlon.dk/
p4
aVhttp://imgfave.com/view/2538809
p5
aVhttp://ebookbrowse.com/a050-10800000-pdf-d343643442
p6
aVhttp://www.macyoung.co.za/showpropertySM182ZZ00005167.cp
p7
aVhttp://www.gale-edit.co.jp/
p8
aVhttp://www.e-edit.co.uk/
p9
aVhttp://www.churchedit.co.uk/website-tips/
p10
aVhttp://minnesota.cbslocal.com/2012/11/09/jordan-football-from-1-7-to-state-tournament/
p11
aVhttp://expressionengine.com/user_guide/installation/upgrade_from_1.x.html
p12
aVhttp://pmindia.nic.in/press-details.php?nodeid=1537
p13
aVhttp://www.prosportsexperience.com/giants/speed-days-at-giants-camp/
p14
aVhttp://variationsonnormal.com/speed-creating/
p15
aVhttp://www.plus.net/support/broadband/speed_guide/speed_basics.shtml
p16
aVhttp://www.gamedesign.jp/flash/speed/speed.html
p17
aVhttp://www.dslreports.com/stest
p18
aVhttp://www.speedmuseum.org/
p19
aVhttp://openlearn.open.ac.uk/mod/oucontent/view.php?id=398848&section=1.6
p20
aVhttp://omni.isr.ist.utl.pt/~sm3/biomedica/systems-biology/Networks.pdf
p21
aVhttp://www.chemguide.co.uk/analysis/masspec/mplus.html
p22
aVhttp://ocaoimh.ie/wp-super-cache/
p23
aVhttp://help.arcgis.com/en/arcgisdesktop/10.0/pdf/cached-map-service-tutorial.pdf
p24
aVhttp://www.makeuseof.com/tag/browser-cache-makeuseof-explains/
p25
aVhttps://angel.co/help/regulations
p26
aVhttp://amandahess.tumblr.com/post/15788360249/publicly-we-view-porn-as-a-danger-to-itself-and
p27
aVhttp://www.squidoo.com/praying-in-public
p28
aVhttp://www.timeticker.com/
p29
aVhttp://wwp.greenwichmeantime.com/
p30
aVhttp://www.nytimes.com/
p31
aVhttps://twitter.com/TO
p32
aVhttp://www.railstotrails.org/
p33
aVhttp://dict.leo.org/ende?lp=ende&p=thMx..&search=to
p34
aVhttp://www.haibane.info/2008/03/16/google-42/
p35
aVhttp://knowyourmeme.com/memes/the-answer-to-life-the-universe-and-everything-42
p36
aVhttp://www.cbs42.com/content/special/story/The-Google-Mistrial/tOJwr4wY70G7y0R5Iccuuw.cspx
p37
atp38
.